phobos.lib
 Warning 2: File Not Found phobos.lib
OPTLINK : Warning 23: No Stack 
mainfile.obj(mainfile) 
 Error 42: Symbol Undefined _D9invariant12_d_invariantFC6ObjectZv
mainfile.obj(mainfile) 
 Error 42: Symbol Undefined _D14TypeInfo_Class6__vtblZ
mainfile.obj(mainfile) 
 Error 42: Symbol Undefined _D14TypeInfo_Array6__vtblZ
mainfile.obj(mainfile) 
 Error 42: Symbol Undefined __d_newclass
mainfile.obj(mainfile) 
 Error 42: Symbol Undefined __d_arrayappendcT
mainfile.obj(mainfile) 
 Error 42: Symbol Undefined __aaIn
mainfile.obj(mainfile) 
 Error 42: Symbol Undefined __aaApply2
mainfile.obj(mainfile) 
 Error 42: Symbol Undefined _D15TypeInfo_Struct6__vtblZ
mainfile.obj(mainfile) 
 Error 42: Symbol Undefined _D13TypeInfo_Enum6__vtblZ
mainfile.obj(mainfile) 
 Error 42: Symbol Undefined _D3std5stdio8writeflnFYv
mainfile.obj(mainfile) 
 Error 42: Symbol Undefined __except_list
mainfile.obj(mainfile) 
 Error 42: Symbol Undefined __d_framehandler
mainfile.obj(mainfile) 
 Error 42: Symbol Undefined _D3std6string6formatFYAa
mainfile.obj(mainfile) 
 Error 42: Symbol Undefined __d_arraycatnT
mainfile.obj(mainfile) 
 Error 42: Symbol Undefined _D3std6random4randFZk
mainfile.obj(mainfile) 
 Error 42: Symbol Undefined __d_arraycatT
mainfile.obj(mainfile) 
 Error 42: Symbol Undefined __d_array_bounds
mainfile.obj(mainfile) 
 Error 42: Symbol Undefined __adEq
mainfile.obj(mainfile) 
 Error 42: Symbol Undefined _D10TypeInfo_h6__initZ
mainfile.obj(mainfile) 
 Error 42: Symbol Undefined _main
mainfile.obj(mainfile) 
 Error 42: Symbol Undefined __acrtused_con
mainfile.obj(mainfile) 
 Error 42: Symbol Undefined _D14TypeInfo_Tuple6__vtblZ
mainfile.obj(mainfile) 
 Error 42: Symbol Undefined _D25TypeInfo_AssociativeArray6__vtblZ
mainfile.obj(mainfile) 
 Error 42: Symbol Undefined _D3std6random12__ModuleInfoZ
mainfile.obj(mainfile) 
 Error 42: Symbol Undefined _D10TypeInfo_m6__initZ
mainfile.obj(mainfile) 
 Error 42: Symbol Undefined _D6object6Object6toHashMFZk
mainfile.obj(mainfile) 
 Error 42: Symbol Undefined _D6object6Object8toStringMFZAa
mainfile.obj(mainfile) 
 Error 42: Symbol Undefined _D6object6Object5opCmpMFC6ObjectZi
mainfile.obj(mainfile) 
 Error 42: Symbol Undefined _D6object6Object5printMFZv
mainfile.obj(mainfile) 
 Error 42: Symbol Undefined _D11TypeInfo_Ah6__initZ
mainfile.obj(mainfile) 
 Error 42: Symbol Undefined _D9ClassInfo6__vtblZ
mainfile.obj(mainfile) 
 Error 42: Symbol Undefined _D10TypeInfo_i6__initZ
mainfile.obj(mainfile) 
 Error 42: Symbol Undefined _D6Object7__ClassZ
mainfile.obj(mainfile) 
 Error 42: Symbol Undefined _D11TypeInfo_Aa6__initZ
mainfile.obj(mainfile) 
 Error 42: Symbol Undefined _D6object6Object8opEqualsMFC6ObjectZi
PL8tRJ\SCve\KzLZGz.obj(KzLZGz) 
 Error 42: Symbol Undefined __d_arrayappendT
PL8tRJ\YYSbXxao.obj(YYSbXxao) 
 Error 42: Symbol Undefined __d_throw@4
PL8tRJ\YYSbXxao.obj(YYSbXxao) 
 Error 42: Symbol Undefined _D6object9Exception5_ctorMFAaZC9Exception
PL8tRJ\YYSbXxao.obj(YYSbXxao) 
 Error 42: Symbol Undefined __d_assert_msg
PL8tRJ\YYSbXxao.obj(YYSbXxao) 
 Error 42: Symbol Undefined _D9Exception7__ClassZ
PL8tRJ\VQL0re.obj(VQL0re) 
 Error 42: Symbol Undefined _D18TypeInfo_Interface6__vtblZ
PL8tRJ\VQL0re.obj(VQL0re) 
 Error 42: Symbol Undefined _D3std4bind2_0S3std4bind14__T6DynArgVi0Z6DynArg
PL8tRJ\VQL0re.obj(VQL0re) 
 Error 42: Symbol Undefined _D3std4bind2_1S3std4bind14__T6DynArgVi1Z6DynArg
PL8tRJ\VQL0re.obj(VQL0re) 
 Error 42: Symbol Undefined _D10TypeInfo_v6__initZ
PL8tRJ\VQL0re.obj(VQL0re) 
 Error 42: Symbol Undefined _D17TypeInfo_Delegate6__vtblZ
PL8tRJ\VQL0re.obj(VQL0re) 
 Error 42: Symbol Undefined _D3std4date12__ModuleInfoZ
PL8tRJ\VQL0re.obj(VQL0re) 
 Error 42: Symbol Undefined _D10TypeInfo_l6__initZ
PL8tRJ\S_8Ue.obj(S_8Ue) 
 Error 42: Symbol Undefined __fltused
PL8tRJ\S_8Ue.obj(S_8Ue) 
 Error 42: Symbol Undefined _D3std6string4findFAaAaZi
PL8tRJ\S_8Ue.obj(S_8Ue) 
 Error 42: Symbol Undefined _D3std6string4joinFAAaAaZAa
PL8tRJ\S_8Ue.obj(S_8Ue) 
 Error 42: Symbol Undefined __d_arraycast
PL8tRJ\S_8Ue.obj(S_8Ue) 
 Error 42: Symbol Undefined _D3std3utf10toUCSindexFAakZk
PL8tRJ\S_8Ue.obj(S_8Ue) 
 Error 42: Symbol Undefined _D3std3utf6toUTF8FAwZAa
PL8tRJ\S_8Ue.obj(S_8Ue) 
 Error 42: Symbol Undefined __aApplycd1
PL8tRJ\S_8Ue.obj(S_8Ue) 
 Error 42: Symbol Undefined __adDupT
PL8tRJ\S_8Ue.obj(S_8Ue) 
 Error 42: Symbol Undefined __LDIV@
PL8tRJ\S_8Ue.obj(S_8Ue) 
 Error 42: Symbol Undefined _mktime
PL8tRJ\S_8Ue.obj(S_8Ue) 
 Error 42: Symbol Undefined _D3std4conv5toIntFAaZi
PL8tRJ\S_8Ue.obj(S_8Ue) 
 Error 42: Symbol Undefined _gmtime
PL8tRJ\S_8Ue.obj(S_8Ue) 
 Error 42: Symbol Undefined _asctime
PL8tRJ\S_8Ue.obj(S_8Ue) 
 Error 42: Symbol Undefined _D3std6string8toStringFPaZAa
PL8tRJ\S_8Ue.obj(S_8Ue) 
 Error 42: Symbol Undefined __aaLen
PL8tRJ\S_8Ue.obj(S_8Ue) 
 Error 42: Symbol Undefined _D3std6string8toStringFkZAa
PL8tRJ\S_8Ue.obj(S_8Ue) 
 Error 42: Symbol Undefined _D3std6string7replaceFAaAaAaZAa
PL8tRJ\S_8Ue.obj(S_8Ue) 
 Error 42: Symbol Undefined _D3std6string5stripFAaZAa
PL8tRJ\S_8Ue.obj(S_8Ue) 
 Error 42: Symbol Undefined _D11TypeInfo_Ai6__initZ
PL8tRJ\S_8Ue.obj(S_8Ue) 
 Error 42: Symbol Undefined __d_newarrayT
PL8tRJ\UVkL.obj(UVkL) 
 Error 42: Symbol Undefined _D3std6stream4File5_ctorMFZC3std6stream4File
PL8tRJ\UVkL.obj(UVkL) 
 Error 42: Symbol Undefined _D3std6stream4File6__initZ
PL8tRJ\UVkL.obj(UVkL) 
 Error 42: Symbol Undefined __d_callfinalizer
PL8tRJ\UVkL.obj(UVkL) 
 Error 42: Symbol Undefined _VirtualAlloc@16
PL8tRJ\UVkL.obj(UVkL) 
 Error 42: Symbol Undefined _D3std6stream12__ModuleInfoZ
PL8tRJ\OmlO6wmTZ2.obj(OmlO6wmTZ2) 
 Error 42: Symbol Undefined _D10TypeInfo_k6__initZ
PL8tRJ\OmlO6wmTZ2.obj(OmlO6wmTZ2) 
 Error 42: Symbol Undefined _D16TypeInfo_Typedef6__vtblZ
PL8tRJ\OmlO6wmTZ2.obj(OmlO6wmTZ2) 
 Error 42: Symbol Undefined _D6PL8tRJ21TVpg3HUXi7OJv35xWEicq9OTFYzS3jkFS6PL8tRJ21TVpg3HUXi7OJv35xWEicq7L3mgINAZPa
PL8tRJ\OmlO6wmTZ2.obj(OmlO6wmTZ2) 
 Error 42: Symbol Undefined _D3std6string8toStringFtZAa
PL8tRJ\OmlO6wmTZ2.obj(OmlO6wmTZ2) 
 Error 42: Symbol Undefined _D6PL8tRJ21TVpg3HUXi7OJv35xWEicq9X5fNY5RAGFPaZk
PL8tRJ\OmlO6wmTZ2.obj(OmlO6wmTZ2) 
 Error 42: Symbol Undefined _D3std6string9toStringzFAaZPa
PL8tRJ\OmlO6wmTZ2.obj(OmlO6wmTZ2) 
 Error 42: Symbol Undefined _D6PL8tRJ21TVpg3HUXi7OJv35xWEicq10Jw7UI6HrqpFkiiPvPiZi
PL8tRJ\OmlO6wmTZ2.obj(OmlO6wmTZ2) 
 Error 42: Symbol Undefined _D6PL8tRJ21TVpg3HUXi7OJv35xWEicq4UL0qFkPviiZi
PL8tRJ\OmlO6wmTZ2.obj(OmlO6wmTZ2) 
 Error 42: Symbol Undefined _D6PL8tRJ21TVpg3HUXi7OJv35xWEicq6QJ8_1nFkPviiPS6PL8tRJ21TVpg3HUXi7OJv35xWEicq8FPp_tQb3iZi
PL8tRJ\OmlO6wmTZ2.obj(OmlO6wmTZ2) 
 Error 42: Symbol Undefined _D6PL8tRJ21TVpg3HUXi7OJv35xWEicq4Fm5wFkPviiZi
PL8tRJ\OmlO6wmTZ2.obj(OmlO6wmTZ2) 
 Error 42: Symbol Undefined _D6PL8tRJ21TVpg3HUXi7OJv35xWEicq8FDMdZwMbFkPviiPS6PL8tRJ21TVpg3HUXi7OJv35xWEicq8FPp_tQb3PiZi
PL8tRJ\OmlO6wmTZ2.obj(OmlO6wmTZ2) 
 Error 42: Symbol Undefined _D6object9Exception8toStringMFZAa
PL8tRJ\OmlO6wmTZ2.obj(OmlO6wmTZ2) 
 Error 42: Symbol Undefined _D6object9Exception5printMFZv
PL8tRJ\SCve\V8eQAW.obj(V8eQAW) 
 Error 42: Symbol Undefined __aaGetRvalue
PL8tRJ\SCve\V8eQAW.obj(V8eQAW) 
 Error 42: Symbol Undefined _D10TypeInfo_t6__initZ
PL8tRJ\SCve\V8eQAW.obj(V8eQAW) 
 Error 42: Symbol Undefined __d_switch_error
PL8tRJ\SCve\V8eQAW.obj(V8eQAW) 
 Error 42: Symbol Undefined _D20TypeInfo_StaticArray6__vtblZ
PL8tRJ\SCve\V8eQAW.obj(V8eQAW) 
 Error 42: Symbol Undefined _D3std6string5splitFAaZAAa
PL8tRJ\SCve\V8eQAW.obj(V8eQAW) 
 Error 42: Symbol Undefined __d_arrayliteralTX
PL8tRJ\SCve\V8eQAW.obj(V8eQAW) 
 Error 42: Symbol Undefined _D3std4date8toStringFlZAa
PL8tRJ\SCve\V8eQAW.obj(V8eQAW) 
 Error 42: Symbol Undefined _D3std4date8MakeDateFllZl
PL8tRJ\KN8D.obj(KN8D) 
 Error 42: Symbol Undefined _D5crc3210init_crc32FZk
PL8tRJ\KN8D.obj(KN8D) 
 Error 42: Symbol Undefined _D11TypeInfo_Ak6__initZ
PL8tRJ\U7NC.obj(U7NC) 
 Error 42: Symbol Undefined _adler32
PL8tRJ\U7NC.obj(U7NC) 
 Error 42: Symbol Undefined _crc32
PL8tRJ\U7NC.obj(U7NC) 
 Error 42: Symbol Undefined __d_assert
PL8tRJ\SCve\DobM.obj(DobM) 
 Error 42: Symbol Undefined _D3std6string8toStringFiZAa
PL8tRJ\SCve\DobM.obj(DobM) 
 Error 42: Symbol Undefined _D3std6string8toStringFbZAa
PL8tRJ\SCve\DobM.obj(DobM) 
 Error 42: Symbol Undefined _D3std6string8toStringFhZAa
PL8tRJ\SCve\DobM.obj(DobM) 
 Error 42: Symbol Undefined _D3std6string8toStringFaZAa
PL8tRJ\SCve\DobM.obj(DobM) 
 Error 42: Symbol Undefined _D10TypeInfo_w6__initZ
PL8tRJ\SCve\DobM.obj(DobM) 
 Error 42: Symbol Undefined _D3std6string8toStringFmZAa
PL8tRJ\SCve\DobM.obj(DobM) 
 Error 42: Symbol Undefined _D10TypeInfo_a6__initZ
WrsbrqT.obj(WrsbrqT) 
 Error 42: Symbol Undefined _D11TypeInfo_Av6__initZ
WrsbrqT.obj(WrsbrqT) 
 Error 42: Symbol Undefined _D16TypeInfo_Pointer6__vtblZ
WrsbrqT.obj(WrsbrqT) 
 Error 42: Symbol Undefined __d_arraysetlengthT

 Start  Stop   Length Name                   Class
 00000H 04CBFH 04CC0H _TEXT                  CODE 32-bit
 04CC0H 0AB63H 05EA4H _DATA                  DATA 32-bit
 0AB64H 0AB64H 00000H FMB                    DATA 32-bit
 0AB64H 0ABABH 00048H FM                     DATA 32-bit
 0ABACH 0ABACH 00000H FME                    DATA 32-bit
 0ABB0H 0ABB0H 00000H CONST                  CONST 32-bit
 0ABB0H 0AD77H 001C8H _BSS                   BSS 32-bit
 0AD80H 0AEABH 0012CH c_common               BSS
 0AEACH 0AEADH 00002H IMP__DATA              IMP__DATA 32-bit

 Origin   Group
 0AD8:0   DGROUP
OPTLINK : Warning 134: No Start Address 

  Address         Publics by Name

 04CC:1370       _D106TypeInfo_C6PL8tRJ8YYSbXxao57__T19W05uXgmxIE2FYC1XnP5TC6PL8tRJ8YYSbXxao12SOq8rVwHOGQRZ19W05uXgmxIE2FYC1XnP56__initZ
 04CC:1A40       _D110TypeInfo_S3std4bind83__T5TupleTS3std4bind14__T6DynArgVi0Z6DynArgTS3std4bind14__T6DynArgVi1Z6DynArgTDFZvZ5Tuple6__initZ
 04CC:12B0       _D115TypeInfo_C6PL8tRJ8YYSbXxao57__T19W05uXgmxIE2FYC1XnP5TC6PL8tRJ8YYSbXxao12SOq8rVwHOGQRZ19W05uXgmxIE2FYC1XnP58E05eODO46__initZ
 04CC:1340       _D116TypeInfo_AC6PL8tRJ8YYSbXxao57__T19W05uXgmxIE2FYC1XnP5TC6PL8tRJ8YYSbXxao12SOq8rVwHOGQRZ19W05uXgmxIE2FYC1XnP58E05eODO46__initZ
 04CC:09B0       _D11TypeInfo_B06__initZ
 04CC:0650       _D12TypeInfo_AAa6__initZ
 04CC:07A0       _D12TypeInfo_AAh6__initZ
 04CC:2290       _D12TypeInfo_AAi6__initZ
 04CC:5860       _D12TypeInfo_AAv6__initZ
 04CC:22B0       _D12TypeInfo_B1i6__initZ
 04CC:4D80       _D12TypeInfo_G9a6__initZ
 04CC:0980       _D13TypeInfo_B2Aa6__initZ
 04CC:09C0       _D13TypeInfo_B2ii6__initZ
 04CC:5500       _D13TypeInfo_B2ll6__initZ
 04CC:1F20       _D13TypeInfo_DFZv6__initZ
 04CC:5900       _D13TypeInfo_G16h6__initZ
 04CC:08C0       _D140TypeInfo_S8mainfile3Fzo9YhNRZAzZrMFC6PL8tRJ4SCve6V8eQAW11LSCyILakhEkC6PL8tRJ8YYSbXxao12SOq8r6BCE72BB16E6131DE6C91F522A1B5621
 04CC:0870       _D141TypeInfo_S8mainfile3Fzo9YhNRZAzZrMFC6PL8tRJ4SCve6V8eQAW11LSCyILakhEkC6PL8tRJ8YYSbXxao12SOq8r3C0ABB7FAE692ED8B4EB33D539FBC7B5
 04CC:0720       _D144TypeInfo_S8mainfile3Fzo9YhNRZAzZrMFC6PL8tRJ4SCve6V8eQAW11LSCyILakhEkC6PL8tRJ8YYSbXxao12SOq8rC3EC1C0C1A6FA60AE16D21BD8C4430B0
 04CC:0780       _D145TypeInfo_AS8mainfile3Fzo9YhNRZAzZrMFC6PL8tRJ4SCve6V8eQAW11LSCyILakhEkC6PL8tRJ8YYSbXxao12SOq87F3207F59FC7BF99D9064C25AC0E0483
 04CC:0910       _D146TypeInfo_S8mainfile3Fzo9YhNRZAzZrMFC6PL8tRJ4SCve6V8eQAW11LSCyILakhEkC6PL8tRJ8YYSbXxao12SOq8r8EFAE750D1019BB43EA05704BE3354FF
 04CC:5910       _D14TypeInfo_AG16h6__initZ
 04CC:4D90       _D14TypeInfo_B3Aaa6__initZ
 04CC:22A0       _D14TypeInfo_B3Aai6__initZ
 04CC:4F10       _D14TypeInfo_B3Aat6__initZ
 04CC:4DA0       _D14TypeInfo_B3Aaw6__initZ
 04CC:22C0       _D14TypeInfo_B3iii6__initZ
 04CC:09D0       _D14TypeInfo_HAaAa6__initZ
 04CC:07B0       _D152TypeInfo_S8mainfile3Fzo9YhNRZAzZrMFC6PL8tRJ4SCve6V8eQAW11LSCyILakhEkC6PL8tRJ8YYSbXxao12SOq8r41B9FDD5B7D78C5CA197005937815C84
 04CC:0810       _D154TypeInfo_S8mainfile3Fzo9YhNRZAzZrMFC6PL8tRJ4SCve6V8eQAW11LSCyILakhEkC6PL8tRJ8YYSbXxao12SOq8rD0F65681196F6747B850318C572D566E
 04CC:09A0       _D15TypeInfo_B4AaAa6__initZ
 04CC:1F70       _D15TypeInfo_B4DFZv6__initZ
 04CC:0990       _D16TypeInfo_B5AaAai6__initZ
 04CC:59F0       _D179TypeInfo_S7WrsbrqT27__T18AyCOXnSHy1A4YqTKscVb0Z18AyCOXnSHy1A4YqTKscFC7WrsbrqT6NCMp4EC7Wrsbrq5E56A07685385BCD18924935865FB069
 04CC:22D0       _D17TypeInfo_B6AaAaAa6__initZ
 04CC:09F0       _D17TypeInfo_B6AaAaAh6__initZ
 04CC:1F40       _D17TypeInfo_B6AaDFZv6__initZ
 04CC:1A30       _D17TypeInfo_B6AallAa6__initZ
 04CC:5A60       _D181TypeInfo_S7WrsbrqT27__T18AyCOXnSHy1A4YqTKscVb0Z18AyCOXnSHy1A4YqTKscFC7WrsbrqT6NCMp4EC7Wrsbrq61CDA6F45A4DE78B3BFC50352F7DB933
 04CC:0A00       _D18TypeInfo_B7AaAaAhm6__initZ
 04CC:54F0       _D18TypeInfo_B7AaAalAa6__initZ
 04CC:5510       _D22TypeInfo_B10AaAailAaAa6__initZ
 04CC:0970       _D23TypeInfo_C8mainfile3Fzo6__initZ
 04CC:5800       _D23TypeInfo_S7WrsbrqT4CnAz6__initZ
 04CC:1AD0       _D247TypeInfo_C3std4bind215__T9BoundFuncTDFC6PL8tRJ6VQL0re5IY1n6C6PL8tRJ6VQL0re9U0813Zf5UDFZvZvS47965A53BAFC470DDE5F759B9B4D7D1E4
 04CC:5870       _D24TypeInfo_PS7WrsbrqT4CnAz6__initZ
 04CC:5880       _D25TypeInfo_APS7WrsbrqT4CnAz6__initZ
 04CC:5920       _D25TypeInfo_C7WrsbrqT6NCMp4E6__initZ
 04CC:57C0       _D25TypeInfo_S7WrsbrqT6ST3h976__initZ
 04CC:5930       _D26TypeInfo_AC7WrsbrqT6NCMp4E6__initZ
 04CC:2510       _D27TypeInfo_C6PL8tRJ4UVkL4UVkL6__initZ
 04CC:09E0       _D29TypeInfo_B17AaAaAaHAaAaAaAaAa6__initZ
 04CC:5840       _D29TypeInfo_E7WrsbrqT4CnAz5Jj_hY6__initZ
 04CC:1980       _D30TypeInfo_C6PL8tRJ6VQL0re5IY1n66__initZ
 04CC:43B0       _D31TypeInfo_C6PL8tRJ4U7NC8LrOc4J0V6__initZ
 04CC:5E60       _D31TypeInfo_S5Qdudr13AeGY1BFD7I0sT6__initZ
 04CC:5770       _D31TypeInfo_S7WrsbrqT11NxtpRDGDnRI6__initZ
 04CC:5490       _D32TypeInfo_C6PL8tRJ7W6oQinE6GPnbOC6__initZ
 04CC:19D0       _D32TypeInfo_S6PL8tRJ6VQL0re7A3br8kL6__initZ
 04CC:5520       _D33TypeInfo_AC6PL8tRJ7W6oQinE6GPnbOC6__initZ
 04CC:1F50       _D33TypeInfo_B21C6PL8tRJ6VQL0re5IY1n66__initZ
 04CC:1A20       _D33TypeInfo_C6PL8tRJ6VQL0re8Yuel3uMc6__initZ
 04CC:0710       _D33TypeInfo_C8mainfile12KjIE8qFD6_J_6__initZ
 04CC:5940       _D33TypeInfo_S7WrsbrqT13Q3LCZ_2zQGiCa6__initZ
 04CC:0670       _D33TypeInfo_S8mainfile12SWhnfUrJKQ7n6__initZ
 04CC:0790       _D34TypeInfo_AS8mainfile12SWhnfUrJKQ7n6__initZ
 04CC:43C0       _D34TypeInfo_C6PL8tRJ4U7NC10CShi9fdEHC6__initZ
 04CC:1990       _D34TypeInfo_C6PL8tRJ6VQL0re9U0813Zf5U6__initZ
 04CC:5890       _D34TypeInfo_S7WrsbrqT14B3oepn1pP2G8Vu6__initZ
 04CC:56D0       _D34TypeInfo_S7WrsbrqT14BP8X5RPsfAmCkR6__initZ
 04CC:5990       _D34TypeInfo_S7WrsbrqT14PGBeG2OG5VWVOH6__initZ
 04CC:59E0       _D35TypeInfo_AS7WrsbrqT14B3oepn1pP2G8Vu6__initZ
 04CC:2540       _D35TypeInfo_C6PL8tRJ4UVkL11OpqlALYtxRh6__initZ
 04CC:0660       _D35TypeInfo_C8mainfile14JhcGTAWNYpsmH16__initZ
 04CC:4080       _D35TypeInfo_E6PL8tRJ4KN8D11__anonymous6__initZ
 04CC:4380       _D35TypeInfo_E6PL8tRJ4U7NC11__anonymous6__initZ
 04CC:2550       _D35TypeInfo_S6PL8tRJ4UVkL11YguACTBDPnK6__initZ
 04CC:3480       _D36TypeInfo_C6PL8tRJ10OmlO6wmTZ26Yaxccj6__initZ
 04CC:06E0       _D36TypeInfo_C8mainfile15V3C8P_3Hb77mFyO6__initZ
 04CC:2260       _D36TypeInfo_E6PL8tRJ5S_8Ue11__anonymous6__initZ
 04CC:3410       _D36TypeInfo_S6PL8tRJ10OmlO6wmTZ26FVqUdW6__initZ
 04CC:11D0       _D36TypeInfo_S6PL8tRJ8YYSbXxao9BJfKKwjMb6__initZ
 04CC:5720       _D36TypeInfo_S7WrsbrqT16AP9WRE55rwuOLv5d6__initZ
 04CC:1F80       _D37TypeInfo_B25C6PL8tRJ6VQL0re9U0813Zf5U6__initZ
 04CC:3310       _D37TypeInfo_C6PL8tRJ10OmlO6wmTZ27DkkGeNj6__initZ
 04CC:32D0       _D37TypeInfo_C6PL8tRJ10OmlO6wmTZ27VuJ7ItS6__initZ
 04CC:43A0       _D37TypeInfo_C6PL8tRJ4U7NC13L1Icn66DY7CCJ6__initZ
 04CC:54B0       _D37TypeInfo_C6PL8tRJ7W6oQinE10D4sXFrbfoO6__initZ
 04CC:1BC0       _D37TypeInfo_S3std4bind10__T5TupleZ5Tuple6__initZ
 04CC:3390       _D37TypeInfo_S6PL8tRJ10OmlO6wmTZ27ZJtA30S6__initZ
 04CC:32C0       _D38TypeInfo_C6PL8tRJ10OmlO6wmTZ28ECnMyGDo6__initZ
 04CC:54D0       _D38TypeInfo_C6PL8tRJ7W6oQinE11IWnw3IBZKxG6__initZ
 04CC:58E0       _D38TypeInfo_E7WrsbrqT6NCMp4E11__anonymous6__initZ
 04CC:3230       _D38TypeInfo_T6PL8tRJ10OmlO6wmTZ28YDkaikWm6__initZ
 04CC:1F60       _D39TypeInfo_B27AaC6PL8tRJ6VQL0re9U0813Zf5U6__initZ
 04CC:34A0       _D39TypeInfo_C6PL8tRJ10OmlO6wmTZ29GaH8HdxRF6__initZ
 04CC:3490       _D39TypeInfo_C6PL8tRJ10OmlO6wmTZ29HnH9zWNqz6__initZ
 04CC:33E0       _D39TypeInfo_C6PL8tRJ10OmlO6wmTZ29ZtcU2D9mO6__initZ
 04CC:1160       _D39TypeInfo_E6PL8tRJ8YYSbXxao11__anonymous6__initZ
 04CC:4D30       _D39TypeInfo_S6PL8tRJ4SCve4DobM10MReeZuNVi86__initZ
 0000:1984       _D3std4bind101__T16extractBoundArgsVi0—1TSÄä©4ÄÉ®6DynÄÉûÄÉùZÄáãÄô¢1Äâ¢DFZvZÄí‚FKÄãª5ÄÉª5TupleÄÜØÄÜåÄ°˛Ä°˝ÄÖÕv
 0000:19A0       _D3std4bind101__T16extractBoundArgsVi0—2TSÄä©4ÄÉ®6DynÄÉûÄÉùZÄáãÄô¢1Äâ¢DFZvZÄí‚FKÄãª5ÄÉª5TupleÄÜØÄÜåÄ°˛Ä°˝ÄÖÕv
 0000:1968       _D3std4bind101__T16extractBoundArgsVi0“TSÄä©4ÄÉ®6DynÄÉûÄÉöZÄáãÄô¢1Äâ¢DFZvZÄí‚FKÄãª5ÄÉª5TupleÄÜØÄÜåÄ°˛Ä°˝ÄÖÕv
 0000:19E4       _D3std4bind101__T16extractBoundArgsVi1—3TSÄä©4ÄÉ®6DynÄÉûVi0ZÄáãÄô¢1Äâ¢DFZvZÄí‚FKÄãª5ÄÉª5TupleÄÜØÄÜåÄ°˛Ä°˝ÄÖÕv
 0000:1548       _D3std4bind10__T5TupleZ5Tuple8toStringMFZAa
 0000:1298       _D3std4bind137__T4bindTDFC6PL8tRJ6VQL0re5IY1n6C6PL8tRJ6VQL0re9U0813Zf5UDFZvZvTS3std4bind14__T6Dy38565852157B506FD320F54E02DBB316
 0000:1584       _D3std4bind15__T5TupleTDFZvZ5Tuple8toStringMFZAa
 0000:142C       _D3std4bind215__T9BoundFuncTDFC6PL8tRJ6VQL0re5IY1n6C6PL8tRJ6VQL0re9U0813Zf5UDFZvZvS41_D3std4bind3F6498C2BA9D2A5B48EDEFB62721C39C
 0000:13D8       _D3std4bind215__T9BoundFuncTDFC6PL8tRJ6VQL0re5IY1n6C6PL8tRJ6VQL0re9U0813Zf5UDFZvZvS41_D3std4bind4615BF66D254463D132CB459F8C70535
 04CC:1AB0       _D3std4bind215__T9BoundFuncTDFC6PL8tRJ6VQL0re5IY1n6C6PL8tRJ6VQL0re9U0813Zf5UDFZvZvS41_D3std4bind76624A045C1A89BD68590B6068F8408B
 0000:1A38       _D3std4bind215__T9BoundFuncTDFC6PL8tRJ6VQL0re5IY1n6C6PL8tRJ6VQL0re9U0813Zf5UDFZvZvS41_D3std4bind89ED239ED8B58B13134C13CAD3171676
 04CC:1AE0       _D3std4bind215__T9BoundFuncTDFC6PL8tRJ6VQL0re5IY1n6C6PL8tRJ6VQL0re9U0813Zf5UDFZvZvS41_D3std4bindB46294F0464652BF8F394B164A9D6F24
 0000:19EC       _D3std4bind215__T9BoundFuncTDFC6PL8tRJ6VQL0re5IY1n6C6PL8tRJ6VQL0re9U0813Zf5UDFZvZvS41_D3std4bindBBA6369FD88A8FD8E055C410AD63645C
 0000:1A88       _D3std4bind215__T9BoundFuncTDFC6PL8tRJ6VQL0re5IY1n6C6PL8tRJ6VQL0re9U0813Zf5UDFZvZvS41_D3std4bindC4A923CC5FDD797E938BB58FC6158D20
 04CC:1B30       _D3std4bind215__T9BoundFuncTDFC6PL8tRJ6VQL0re5IY1n6C6PL8tRJ6VQL0re9U0813Zf5UDFZvZvS41_D3std4bindDE5614FC12AB4818D2285FCA567C5C0D
 0000:1AE4       _D3std4bind215__T9BoundFuncTDFC6PL8tRJ6VQL0re5IY1n6C6PL8tRJ6VQL0re9U0813Zf5UDFZvZvS41_D3std4bindECD50ED944F6D6D7CB714ADA61F034BB
 0000:19C8       _D3std4bind22__T7_assignTDFZvTDFZvZ7_assignFKDFZvKDFZvZv
 0000:1AC8       _D3std4bind25__T7_assignTDFZvTDFZvVb0Z7_assignFKDFZvKDFZvZv
 0000:16D4       _D3std4bind32__T5TupleTC6PL8tRJ6VQL0re5IY1n6Z5Tuple8toStringMFZAa
 0000:1758       _D3std4bind36__T5TupleTC6PL8tRJ6VQL0re9U0813Zf5UZ5Tuple8toStringMFZAa
 0000:160C       _D3std4bind41__T5TupleTC6PL8tRJ6VQL0re9U0813Zf5UTDFZvZ5Tuple8toStringMFZAa
 0000:18A0       _D3std4bind49__T5TupleTS3std4bind14__T6DynArgVi1Z6DynArgTDFZvZ5Tuple8toStringMFZAa
 0000:17DC       _D3std4bind58__T5TupleTC6PL8tRJ6VQL0re5IY1n6TC6PL8tRJ6VQL0re9U0813Zf5UZ5Tuple8toStringMFZAa
 0000:1A20       _D3std4bind59__T7_assignTC6PL8tRJ6VQL0re5IY1n6TC6PL8tRJ6VQL0re5IY1n6Vb1Z7_assignFKC6PL8tRJ6VQL0re5IY1n6KC6PL8tRJ6VQL0re5IY1n6Zv
 0000:1448       _D3std4bind63__T5TupleTC6PL8tRJ6VQL0re5IY1n6TC6PL8tRJ6VQL0re9U0813Zf5UTDFZvZ5Tuple8toStringMFZAa
 0000:1A70       _D3std4bind67__TŸassignTC6PL8tRJ6VQL0re9U0813Zf5UÄööVb1ZÄà¿FKÄôßÄööZv
 0000:12D8       _D3std4bind83__T5TupleTS3std4bind14__T6DynArgVi0Z6DynArgTS3std4bind14__T6DynArgVi1Z6DynArgTDFZvZ5Tuple8toStringMFZAa
 0AD8:0108       _D3std6traits27__T18isStaticArray_implTAiZ4instAi
 0AD8:0110       _D3std6traits28__T18isStaticArray_implTHaiZ4instHai
 0AD8:0114       _D3std6traits29__T18isStaticArray_implTAG1iZ4instAG1i
 0AD8:011C       _D3std6traits29__T18isStaticArray_implTDFZvZ4instDFZv
 0AD8:00CC       _D3std6traits29__T18isStaticArray_implTG2AiZ4instG2Ai
 0AD8:0000       _D3std6traits29__T18isStaticArray_implTG51iZ4instG51i
 0AD8:00DC       _D3std6traits32__T18isStaticArray_implTG11HiAaZ4instG11HiAa
 0AD8:0124       _D3std6traits46__T18isStaticArray_implTC6PL8tRJ6VQL0re5IY1n6Z4instC6PL8tRJ6VQL0re5IY1n6
 0AD8:0128       _D3std6traits50__T18isStaticArray_implTC6PL8tRJ6VQL0re9U0813Zf5UZ4instC6PL8tRJ6VQL0re9U0813Zf5U
 04CC:43D0       _D40TypeInfo_C6PL8tRJ4U7NC16IrxQ0oM8iZ6855c46__initZ
 04CC:54A0       _D40TypeInfo_C6PL8tRJ7W6oQinE13HuhKpbLkFJjhg6__initZ
 04CC:54C0       _D40TypeInfo_C6PL8tRJ7W6oQinE13ZzoJiJ9vuPlip6__initZ
 04CC:1270       _D40TypeInfo_C6PL8tRJ8YYSbXxao12SOq8rVwHOGQR6__initZ
 04CC:24F0       _D40TypeInfo_E6PL8tRJ4UVkL4UVkL11__anonymous6__initZ
 04CC:0C20       _D41TypeInfo_C6PL8tRJ4SCve6KzLZGz10YM9VdJR9vJ6__initZ
 04CC:4F00       _D41TypeInfo_C6PL8tRJ4SCve6S9FDhs10Jwa30kxluS6__initZ
 04CC:19C0       _D41TypeInfo_C6PL8tRJ6VQL0re15Q1mAkz4hVW7hZN16__initZ
 04CC:19B0       _D41TypeInfo_C6PL8tRJ6VQL0re15ZW8ZKNwrOMTMoUg6__initZ
 04CC:1230       _D41TypeInfo_C6PL8tRJ8YYSbXxao13JFI8ULUOXLUwP6__initZ
 04CC:1260       _D41TypeInfo_C6PL8tRJ8YYSbXxao13Sj9asAviCk8sA6__initZ
 04CC:3280       _D41TypeInfo_E6PL8tRJ10OmlO6wmTZ210PBrTCy3VAP6__initZ
 04CC:1180       _D41TypeInfo_S6PL8tRJ8YYSbXxao13MvpbcBn39p7yc6__initZ
 04CC:19A0       _D42TypeInfo_AC6PL8tRJ6VQL0re15Q1mAkz4hVW7hZN16__initZ
 04CC:1220       _D42TypeInfo_AC6PL8tRJ8YYSbXxao13Sj9asAviCk8sA6__initZ
 04CC:3F60       _D42TypeInfo_C6PL8tRJ4SCve6V8eQAW11LSCyILakhEk6__initZ
 04CC:3F50       _D42TypeInfo_C6PL8tRJ4SCve6V8eQAW11WaS0xDC4g0p6__initZ
 04CC:3370       _D42TypeInfo_E6PL8tRJ10OmlO6wmTZ211F2wnED8pGtB6__initZ
 04CC:1240       _D42TypeInfo_E6PL8tRJ8YYSbXxao14CIqwuuHVVTAYGZ6__initZ
 04CC:1E60       _D42TypeInfo_S3std4bind14__T6DynArgVi0Z6DynArg6__initZ
 04CC:1EC0       _D42TypeInfo_S3std4bind14__T6DynArgVi1Z6DynArg6__initZ
 04CC:1C10       _D42TypeInfo_S3std4bind15__T5TupleTDFZvZ5Tuple6__initZ
 04CC:5DC0       _D42TypeInfo_S6PL8tRJ9PWUmAyceS13QaZn5o1xJFQiL6__initZ
 04CC:32F0       _D43TypeInfo_C6PL8tRJ10OmlO6wmTZ212DpaJJ9PApdWC6__initZ
 04CC:3F90       _D43TypeInfo_C6PL8tRJ4SCve6V8eQAW12Nd4PsjPBdmpz6__initZ
 04CC:3460       _D43TypeInfo_E6PL8tRJ10OmlO6wmTZ212HyC1nONSw8aP6__initZ
 04CC:32A0       _D43TypeInfo_E6PL8tRJ10OmlO6wmTZ212OfOTpgfA9ism6__initZ
 04CC:32E0       _D44TypeInfo_C6PL8tRJ10OmlO6wmTZ213Fydbda36iVXSg6__initZ
 04CC:2280       _D44TypeInfo_C6PL8tRJ5S_8Ue19M32Uvhn0KYWnMnWJvoh6__initZ
 04CC:3260       _D44TypeInfo_E6PL8tRJ10OmlO6wmTZ213Hk3hHUF6rnXna6__initZ
 04CC:1EB0       _D45TypeInfo_B33S3std4bind14__T6DynArgVi0Z6DynArg6__initZ
 04CC:1F90       _D45TypeInfo_B33S3std4bind14__T6DynArgVi1Z6DynArg6__initZ
 04CC:3320       _D45TypeInfo_C6PL8tRJ10OmlO6wmTZ214IyKziRcqroDxVu6__initZ
 04CC:3350       _D45TypeInfo_E6PL8tRJ10OmlO6wmTZ214JuesLSTEkUd0hY6__initZ
 04CC:3F70       _D45TypeInfo_E6PL8tRJ4SCve6V8eQAW14HwC6ax58bnXVra6__initZ
 04CC:3250       _D46TypeInfo_C6PL8tRJ10OmlO6wmTZ215Lxku55mJ9GeteFE6__initZ
 04CC:3330       _D46TypeInfo_C6PL8tRJ10OmlO6wmTZ215RWLFi9dIZjVWEdP6__initZ
 04CC:1280       _D46TypeInfo_C6PL8tRJ8YYSbXxao18S6OzYzbrD9Ac2ODNXe6__initZ
 04CC:06F0       _D46TypeInfo_E8mainfile12KjIE8qFD6_J_11__anonymous6__initZ
 04CC:1F10       _D47TypeInfo_B35AaS3std4bind14__T6DynArgVi1Z6DynArg6__initZ
 04CC:3300       _D47TypeInfo_C6PL8tRJ10OmlO6wmTZ216T33ey1Z0pY6p5QKo6__initZ
 04CC:54E0       _D47TypeInfo_C6PL8tRJ7W6oQinE20Sjf10OGE3hXfL57LEzgc6__initZ
 04CC:3670       _D47TypeInfo_S6PL8tRJ21TVpg3HUXi7OJv35xWEicq6FVqUdW6__initZ
 04CC:3610       _D47TypeInfo_S6PL8tRJ21TVpg3HUXi7OJv35xWEicq6IuZEzp6__initZ
 04CC:33F0       _D48TypeInfo_E6PL8tRJ10OmlO6wmTZ217CeKs_0R6L4Q1AqC6E6__initZ
 04CC:2520       _D48TypeInfo_E6PL8tRJ4UVkL11OpqlALYtxRh11__anonymous6__initZ
 04CC:3590       _D48TypeInfo_S6PL8tRJ21TVpg3HUXi7OJv35xWEicq7Bb5o7IV6__initZ
 04CC:3BD0       _D48TypeInfo_S6PL8tRJ21TVpg3HUXi7OJv35xWEicq7I0WKVvV6__initZ
 04CC:37F0       _D48TypeInfo_S6PL8tRJ21TVpg3HUXi7OJv35xWEicq7L3mgINA6__initZ
 04CC:3730       _D48TypeInfo_S6PL8tRJ21TVpg3HUXi7OJv35xWEicq7RvZMxWT6__initZ
 04CC:3790       _D48TypeInfo_S6PL8tRJ21TVpg3HUXi7OJv35xWEicq7ZJtA30S6__initZ
 04CC:06C0       _D49TypeInfo_E8mainfile15V3C8P_3Hb77mFyO11__anonymous6__initZ
 04CC:3990       _D49TypeInfo_S6PL8tRJ21TVpg3HUXi7OJv35xWEicq8EOrIIyuh6__initZ
 04CC:3A50       _D49TypeInfo_S6PL8tRJ21TVpg3HUXi7OJv35xWEicq8FPp_tQb36__initZ
 04CC:36D0       _D49TypeInfo_S6PL8tRJ21TVpg3HUXi7OJv35xWEicq8PAwLzCh46__initZ
 04CC:3B70       _D49TypeInfo_S6PL8tRJ21TVpg3HUXi7OJv35xWEicq8Phd4d0d86__initZ
 04CC:4C10       _D50TypeInfo_C6PL8tRJ4SCve10S4lHH6gZNI14DEbkdp_8fRzMXX6__initZ
 04CC:0630       _D50TypeInfo_C8mainfile14JhcGTAWNYpsmH113JkqHMLwsZGazf6__initZ
 04CC:0640       _D51TypeInfo_AC8mainfile14JhcGTAWNYpsmH113JkqHMLwsZGazf6__initZ
 04CC:3340       _D52TypeInfo_C6PL8tRJ10OmlO6wmTZ221RngQluqPAqhIN30tU_Y5e6__initZ
 04CC:0C10       _D53TypeInfo_C6PL8tRJ4SCve6KzLZGz10YM9VdJR9vJ10IvEfmqD2YH6__initZ
 04CC:35F0       _D53TypeInfo_E6PL8tRJ21TVpg3HUXi7OJv35xWEicq11__anonymous6__initZ
 04CC:3AB0       _D53TypeInfo_S6PL8tRJ21TVpg3HUXi7OJv35xWEicq11YmLTddMpbxz6__initZ
 04CC:3B10       _D54TypeInfo_S6PL8tRJ21TVpg3HUXi7OJv35xWEicq12XpLVZLwnR7X96__initZ
 04CC:3850       _D56TypeInfo_S6PL8tRJ21TVpg3HUXi7OJv35xWEicq7L3mgINA7F6wINQn6__initZ
 04CC:3FA0       _D56TypeInfo_S6PL8tRJ4SCve6V8eQAW13Ugyo1hRFwLgyCFAaZAAa4Uytd6__initZ
 04CC:5AD0       _D578TypeInfo_S6PL8tRJ9PWUmAyceS538__T9VIs5quPFWTS7WrsbrqT27__T18AyCOXnSHy1A4YqTKscVb0Z18AyCOXnSH490DE8F2BBBE28AC3F26567A84285B56
 04CC:5B80       _D583TypeInfo_S6PL8tRJ9PWUmAyceS538__T9VIs5quPFWTS7WrsbrqT27__T18AyCOXnSHy1A4YqTKscVb0Z18AyCOXnSH57EC85FF6A926833C2C6D4F26D15DEDB
 04CC:4000       _D58TypeInfo_G1S6PL8tRJ4SCve6V8eQAW13Ugyo1hRFwLgyCFAaZAAa4Uytd6__initZ
 04CC:39F0       _D58TypeInfo_S6PL8tRJ21TVpg3HUXi7OJv35xWEicq8EOrIIyuh8VRvGF4lP6__initZ
 04CC:1CE0       _D59TypeInfo_S3std4bind32__T5TupleTC6PL8tRJ6VQL0re5IY1n6Z5Tuple6__initZ
 04CC:5E20       _D5Qdudr12__ModuleInfoZ
 0ABB:01C0       _D5Qdudr13AeGY1BFD7I0sT6__initZ
 04CC:1D30       _D63TypeInfo_S3std4bind36__T5TupleTC6PL8tRJ6VQL0re9U0813Zf5UZ5Tuple6__initZ
 04CC:38B0       _D66TypeInfo_S6PL8tRJ21TVpg3HUXi7OJv35xWEicq7L3mgINA7F6wINQn9VZXQFaXc66__initZ
 04CC:3920       _D66TypeInfo_S6PL8tRJ21TVpg3HUXi7OJv35xWEicq7L3mgINA7F6wINQn9X34UajOge6__initZ
 04CC:5C30       _D682TypeInfo_S6PL8tRJ9PWUmAyceS637__T13K2lfUZJzEtmy4TS6PL8tRJ9PWUmAyceS538__T9VIs5quPFWTS7WrsbrqAB78391E66F7C1F6837DD42C3BF02393
 04CC:5CB0       _D688TypeInfo_S6PL8tRJ9PWUmAyceS637__T13K2lfUZJzEtmy4TS6PL8tRJ9PWUmAyceS538__T9VIs5quPFWTS7Wrsbrq3AD22A103C12A7C66078CAF795239BBB
 04CC:1C70       _D68TypeInfo_S3std4bind41__T5TupleTC6PL8tRJ6VQL0re9U0813Zf5UTDFZvZ5Tuple6__initZ
 04CC:26BC       _D6PL8tRJ10OmlO6wmTZ210PBrTCy3VAP6__initZ
 0000:28A8       _D6PL8tRJ10OmlO6wmTZ210YrZYkKI4NmFZb
 0000:2944       _D6PL8tRJ10OmlO6wmTZ212DpaJJ9PApdWC12MxqOg7mlg_7GMFZv
 0000:296C       _D6PL8tRJ10OmlO6wmTZ212DpaJJ9PApdWC13C_9OZ8Yzotc9XMFZb
 0000:2994       _D6PL8tRJ10OmlO6wmTZ212DpaJJ9PApdWC13QATNzwaqf4ERoMFAaZb
 0000:2980       _D6PL8tRJ10OmlO6wmTZ212DpaJJ9PApdWC13QATNzwaqf4ERoMFZb
 04CC:28B8       _D6PL8tRJ10OmlO6wmTZ212DpaJJ9PApdWC6__initZ
 04CC:2930       _D6PL8tRJ10OmlO6wmTZ212DpaJJ9PApdWC6__vtblZ
 04CC:28E0       _D6PL8tRJ10OmlO6wmTZ212DpaJJ9PApdWC7__ClassZ
 0000:2958       _D6PL8tRJ10OmlO6wmTZ212DpaJJ9PApdWC8XoBh6WkKMFZv
 04CC:2E48       _D6PL8tRJ10OmlO6wmTZ212HyC1nONSw8aP6__initZ
 04CC:26E0       _D6PL8tRJ10OmlO6wmTZ212OfOTpgfA9ism6__initZ
 04CC:31C0       _D6PL8tRJ10OmlO6wmTZ212__ModuleInfoZ
 0000:28C0       _D6PL8tRJ10OmlO6wmTZ212_staticCtor7FZv
 0000:28C8       _D6PL8tRJ10OmlO6wmTZ212_staticDtor8FZv
 0000:2928       _D6PL8tRJ10OmlO6wmTZ213Fydbda36iVXSg5_ctorMFZC6PL8tRJ10OmlO6wmTZ213Fydbda36iVXSg
 04CC:2820       _D6PL8tRJ10OmlO6wmTZ213Fydbda36iVXSg6__initZ
 04CC:28A0       _D6PL8tRJ10OmlO6wmTZ213Fydbda36iVXSg6__vtblZ
 04CC:2850       _D6PL8tRJ10OmlO6wmTZ213Fydbda36iVXSg7__ClassZ
 04CC:2698       _D6PL8tRJ10OmlO6wmTZ213Hk3hHUF6rnXna6__initZ
 04CC:25C0       _D6PL8tRJ10OmlO6wmTZ213KZjfRbtq4bs6fi
 0000:29E8       _D6PL8tRJ10OmlO6wmTZ214IyKziRcqroDxVu13Jbt5TpPgSnIq4MFZE6PL8tRJ10OmlO6wmTZ213Hk3hHUF6rnXna
 0000:29C8       _D6PL8tRJ10OmlO6wmTZ214IyKziRcqroDxVu4WaHNMFZPS6PL8tRJ21TVpg3HUXi7OJv35xWEicq8FPp_tQb3
 04CC:2AC0       _D6PL8tRJ10OmlO6wmTZ214IyKziRcqroDxVu6__initZ
 04CC:2B50       _D6PL8tRJ10OmlO6wmTZ214IyKziRcqroDxVu6__vtblZ
 0000:29D8       _D6PL8tRJ10OmlO6wmTZ214IyKziRcqroDxVu7MWSnHZ4MFZi
 04CC:2B00       _D6PL8tRJ10OmlO6wmTZ214IyKziRcqroDxVu7__ClassZ
 0000:2A00       _D6PL8tRJ10OmlO6wmTZ214IyKziRcqroDxVu8toStringMFZAa
 04CC:2D1C       _D6PL8tRJ10OmlO6wmTZ214JuesLSTEkUd0hY6__initZ
 0000:285C       _D6PL8tRJ10OmlO6wmTZ215Lxku55mJ9GeteFE5_ctorMFAaiZC6PL8tRJ10OmlO6wmTZ215Lxku55mJ9GeteFE
 04CC:25D0       _D6PL8tRJ10OmlO6wmTZ215Lxku55mJ9GeteFE6__initZ
 04CC:2660       _D6PL8tRJ10OmlO6wmTZ215Lxku55mJ9GeteFE6__vtblZ
 04CC:2610       _D6PL8tRJ10OmlO6wmTZ215Lxku55mJ9GeteFE7__ClassZ
 0000:2ACC       _D6PL8tRJ10OmlO6wmTZ215RWLFi9dIZjVWEdP12Az2MpootjS2vMFZAa
 0000:2AF0       _D6PL8tRJ10OmlO6wmTZ215RWLFi9dIZjVWEdP12Qtd7r50eLKMGMFZAa
 0000:2A48       _D6PL8tRJ10OmlO6wmTZ215RWLFi9dIZjVWEdP13Jbt5TpPgSnIq4MFZE6PL8tRJ10OmlO6wmTZ213Hk3hHUF6rnXna
 0000:2A60       _D6PL8tRJ10OmlO6wmTZ215RWLFi9dIZjVWEdP4JIpPMFZt
 0000:2A80       _D6PL8tRJ10OmlO6wmTZ215RWLFi9dIZjVWEdP4N1FjMFZk
 0000:2A1C       _D6PL8tRJ10OmlO6wmTZ215RWLFi9dIZjVWEdP4WaHNMFZPS6PL8tRJ21TVpg3HUXi7OJv35xWEicq8FPp_tQb3
 0000:2B2C       _D6PL8tRJ10OmlO6wmTZ215RWLFi9dIZjVWEdP5QdudrFAaZk
 0000:2A9C       _D6PL8tRJ10OmlO6wmTZ215RWLFi9dIZjVWEdP5_ctorMFAaZC6PL8tRJ10OmlO6wmTZ215RWLFi9dIZjVWEdP
 0000:2A3C       _D6PL8tRJ10OmlO6wmTZ215RWLFi9dIZjVWEdP5_ctorMFZC6PL8tRJ10OmlO6wmTZ215RWLFi9dIZjVWEdP
 0000:2AAC       _D6PL8tRJ10OmlO6wmTZ215RWLFi9dIZjVWEdP5_ctorMFkZC6PL8tRJ10OmlO6wmTZ215RWLFi9dIZjVWEdP
 0000:2ABC       _D6PL8tRJ10OmlO6wmTZ215RWLFi9dIZjVWEdP5_ctorMFtZC6PL8tRJ10OmlO6wmTZ215RWLFi9dIZjVWEdP
 04CC:2B80       _D6PL8tRJ10OmlO6wmTZ215RWLFi9dIZjVWEdP6__initZ
 04CC:2C10       _D6PL8tRJ10OmlO6wmTZ215RWLFi9dIZjVWEdP6__vtblZ
 0000:2A2C       _D6PL8tRJ10OmlO6wmTZ215RWLFi9dIZjVWEdP7MWSnHZ4MFZi
 04CC:2BC0       _D6PL8tRJ10OmlO6wmTZ215RWLFi9dIZjVWEdP7__ClassZ
 0ABB:00D0       _D6PL8tRJ10OmlO6wmTZ215RWLFi9dIZjVWEdP8AQSR7xRdk
 0ABB:00D4       _D6PL8tRJ10OmlO6wmTZ215RWLFi9dIZjVWEdP8NLeOaMUtt
 0000:2B10       _D6PL8tRJ10OmlO6wmTZ215RWLFi9dIZjVWEdP8toStringMFZAa
 04CC:2B74       _D6PL8tRJ10OmlO6wmTZ215RWLFi9dIZjVWEdP9YMxfzYSM5k
 0000:29AC       _D6PL8tRJ10OmlO6wmTZ216T33ey1Z0pY6p5QKo5_ctorMFZC6PL8tRJ10OmlO6wmTZ216T33ey1Z0pY6p5QKo
 04CC:2960       _D6PL8tRJ10OmlO6wmTZ216T33ey1Z0pY6p5QKo6__initZ
 04CC:29F0       _D6PL8tRJ10OmlO6wmTZ216T33ey1Z0pY6p5QKo6__vtblZ
 04CC:29A0       _D6PL8tRJ10OmlO6wmTZ216T33ey1Z0pY6p5QKo7__ClassZ
 04CC:2E24       _D6PL8tRJ10OmlO6wmTZ217CeKs_0R6L4Q1AqC6E6__initZ
 0000:2878       _D6PL8tRJ10OmlO6wmTZ218B9UWNoCRHDRzgOLJt5FAaZC6PL8tRJ10OmlO6wmTZ215Lxku55mJ9GeteFE
 0000:2B48       _D6PL8tRJ10OmlO6wmTZ221RngQluqPAqhIN30tU_Y5e5_ctorMFiZC6PL8tRJ10OmlO6wmTZ221RngQluqPAqhIN30tU_Y5e
 04CC:2C50       _D6PL8tRJ10OmlO6wmTZ221RngQluqPAqhIN30tU_Y5e6__initZ
 04CC:2CE0       _D6PL8tRJ10OmlO6wmTZ221RngQluqPAqhIN30tU_Y5e6__vtblZ
 04CC:2C90       _D6PL8tRJ10OmlO6wmTZ221RngQluqPAqhIN30tU_Y5e7__ClassZ
 0ABB:00D7       _D6PL8tRJ10OmlO6wmTZ26FVqUdW6__initZ
 0000:2FD8       _D6PL8tRJ10OmlO6wmTZ26Yaxccj11OpBKorYZmUbMFAvE6PL8tRJ10OmlO6wmTZ211F2wnED8pGtBJC6PL8tRJ10OmlO6wmTZ27DkkGeNjZi
 0000:3054       _D6PL8tRJ10OmlO6wmTZ26Yaxccj11OpBKorYZmUbMFAvE6PL8tRJ10OmlO6wmTZ211F2wnED8pGtBZi
 0000:3024       _D6PL8tRJ10OmlO6wmTZ26Yaxccj11OpBKorYZmUbMFAvJC6PL8tRJ10OmlO6wmTZ27DkkGeNjZi
 0000:3084       _D6PL8tRJ10OmlO6wmTZ26Yaxccj11OpBKorYZmUbMFAvZi
 0000:2E70       _D6PL8tRJ10OmlO6wmTZ26Yaxccj12H9GVqjRUfoyFMFZC6PL8tRJ10OmlO6wmTZ27DkkGeNj
 0000:2E54       _D6PL8tRJ10OmlO6wmTZ26Yaxccj13Cqxk2uLAIns9xMFZC6PL8tRJ10OmlO6wmTZ27DkkGeNj
 0000:2D2C       _D6PL8tRJ10OmlO6wmTZ26Yaxccj13Jbt5TpPgSnIq4MFZE6PL8tRJ10OmlO6wmTZ213Hk3hHUF6rnXna
 0000:2E28       _D6PL8tRJ10OmlO6wmTZ26Yaxccj15JR6CF0QXNFsKOBEMFZC6PL8tRJ10OmlO6wmTZ27DkkGeNj
 0000:2E8C       _D6PL8tRJ10OmlO6wmTZ26Yaxccj4UL0qMFAvE6PL8tRJ10OmlO6wmTZ211F2wnED8pGtBZi
 0000:2EB8       _D6PL8tRJ10OmlO6wmTZ26Yaxccj4UL0qMFAvZi
 0000:2D84       _D6PL8tRJ10OmlO6wmTZ26Yaxccj4bindMFZv
 04CC:2E4C       _D6PL8tRJ10OmlO6wmTZ26Yaxccj5S6T4_i
 0000:2E14       _D6PL8tRJ10OmlO6wmTZ26Yaxccj5WdoHJMFZv
 0000:2CCC       _D6PL8tRJ10OmlO6wmTZ26Yaxccj5_ctorMFAaZC6PL8tRJ10OmlO6wmTZ26Yaxccj
 0000:2CBC       _D6PL8tRJ10OmlO6wmTZ26Yaxccj5_ctorMFE6PL8tRJ10OmlO6wmTZ210PBrTCy3VAPZC6PL8tRJ10OmlO6wmTZ26Yaxccj
 0000:2CAC       _D6PL8tRJ10OmlO6wmTZ26Yaxccj5_ctorMFE6PL8tRJ10OmlO6wmTZ212OfOTpgfA9ismZC6PL8tRJ10OmlO6wmTZ26Yaxccj
 0000:2CA0       _D6PL8tRJ10OmlO6wmTZ26Yaxccj5_ctorMFZC6PL8tRJ10OmlO6wmTZ26Yaxccj
 0000:2CDC       _D6PL8tRJ10OmlO6wmTZ26Yaxccj5_dtorMFZv
 0000:2E0C       _D6PL8tRJ10OmlO6wmTZ26Yaxccj6K3JlKYFZv
 0000:2DAC       _D6PL8tRJ10OmlO6wmTZ26Yaxccj6MTQOz5MFZv
 0000:2CE8       _D6PL8tRJ10OmlO6wmTZ26Yaxccj6RjaccjMFZT6PL8tRJ10OmlO6wmTZ28YDkaikWm
 0000:2F10       _D6PL8tRJ10OmlO6wmTZ26Yaxccj6VIEHQzMFAvC6PL8tRJ10OmlO6wmTZ27DkkGeNjZi
 0000:2EDC       _D6PL8tRJ10OmlO6wmTZ26Yaxccj6VIEHQzMFAvE6PL8tRJ10OmlO6wmTZ211F2wnED8pGtBC6PL8tRJ10OmlO6wmTZ27DkkGeNjZi
 0000:2F34       _D6PL8tRJ10OmlO6wmTZ26Yaxccj6VIEHQzMFAvE6PL8tRJ10OmlO6wmTZ211F2wnED8pGtBZi
 0000:2F64       _D6PL8tRJ10OmlO6wmTZ26Yaxccj6VIEHQzMFAvZi
 0000:2DE0       _D6PL8tRJ10OmlO6wmTZ26Yaxccj6Vrbb91MFZC6PL8tRJ10OmlO6wmTZ26Yaxccj
 0000:31B0       _D6PL8tRJ10OmlO6wmTZ26Yaxccj6ZqUoNzFC6PL8tRJ10OmlO6wmTZ29ZtcU2D9mOC6PL8tRJ10OmlO6wmTZ29ZtcU2D9mOC6PL8tRJ10OmlO6wmTZ29ZtcU2D9mOZi
 0000:3180       _D6PL8tRJ10OmlO6wmTZ26Yaxccj6ZqUoNzFCÄì£9ZtcU2D9mOÄûûÄûûPSÄìü7ZJtA30SZi
 0000:3190       _D6PL8tRJ10OmlO6wmTZ26Yaxccj6ZqUoNzFCÄì£9ZtcU2D9mOÄûûÄûûiZi
 04CC:2E50       _D6PL8tRJ10OmlO6wmTZ26Yaxccj6__initZ
 04CC:2ED0       _D6PL8tRJ10OmlO6wmTZ26Yaxccj6__vtblZ
 0000:2D44       _D6PL8tRJ10OmlO6wmTZ26Yaxccj7DH2BvDKMFZb
 0000:2F88       _D6PL8tRJ10OmlO6wmTZ26Yaxccj7KhAAvB4MFAvE6PL8tRJ10OmlO6wmTZ211F2wnED8pGtBZi
 0000:2FB4       _D6PL8tRJ10OmlO6wmTZ26Yaxccj7KhAAvB4MFAvZi
 0000:2D98       _D6PL8tRJ10OmlO6wmTZ26Yaxccj7QXBe2HtMFZv
 04CC:2E80       _D6PL8tRJ10OmlO6wmTZ26Yaxccj7__ClassZ
 0000:2DF8       _D6PL8tRJ10OmlO6wmTZ26Yaxccj8GaQI72BBMFZv
 0000:2D00       _D6PL8tRJ10OmlO6wmTZ26Yaxccj8QUzY2U08MFZb
 0000:2D18       _D6PL8tRJ10OmlO6wmTZ26Yaxccj8QUzY2U08MFbZv
 0000:2E38       _D6PL8tRJ10OmlO6wmTZ26Yaxccj8SLWgKWelFZAa
 0000:30A8       _D6PL8tRJ10OmlO6wmTZ26Yaxccj9B6tJQ4rVnMFE6PL8tRJ10OmlO6wmTZ217CeKs_0R6L4Q1AqC6EE6PL8tRJ10OmlO6wmTZ212HyC1nONSw8aPAvZi
 0000:30C4       _D6PL8tRJ10OmlO6wmTZ26Yaxccj9B6tJQ4rVnMFE6PL8tRJ10OmlO6wmTZ217CeKs_0R6L4Q1AqC6EE6PL8tRJ10OmlO6wmTZ212HyC1nONSw8aPJiZi
 0000:310C       _D6PL8tRJ10OmlO6wmTZ26Yaxccj9B6tJQ4rVnMFEÄìß17CeKs_0R6L4Q1AqC6EÄïß2HyC1nONSw8aPJSÄîÒFVqUdWZi
 0000:316C       _D6PL8tRJ10OmlO6wmTZ26Yaxccj9CdZvogUaaMFS6PL8tRJ10OmlO6wmTZ26FVqUdWZv
 0000:3144       _D6PL8tRJ10OmlO6wmTZ26Yaxccj9CdZvogUaaMFZv
 0000:3158       _D6PL8tRJ10OmlO6wmTZ26Yaxccj9CdZvogUaaMFiZv
 0000:2DC0       _D6PL8tRJ10OmlO6wmTZ26Yaxccj9UU4g6Q5CBMFZC6PL8tRJ10OmlO6wmTZ26Yaxccj
 04CC:2A10       _D6PL8tRJ10OmlO6wmTZ27DkkGeNj6__initZ
 04CC:2A90       _D6PL8tRJ10OmlO6wmTZ27DkkGeNj6__vtblZ
 04CC:2A40       _D6PL8tRJ10OmlO6wmTZ27DkkGeNj7__ClassZ
 0000:28FC       _D6PL8tRJ10OmlO6wmTZ27VuJ7ItS16XWepXTuiuqDrvCgkMFZb
 0000:2910       _D6PL8tRJ10OmlO6wmTZ27VuJ7ItS16XWepXTuiuqDrvCgkMFtZb
 0000:28E4       _D6PL8tRJ10OmlO6wmTZ27VuJ7ItS16ZDk27H7EPWszeIWsMFAaZb
 0000:28D0       _D6PL8tRJ10OmlO6wmTZ27VuJ7ItS16ZDk27H7EPWszeIWsMFZb
 04CC:2778       _D6PL8tRJ10OmlO6wmTZ27VuJ7ItS6__initZ
 04CC:27F0       _D6PL8tRJ10OmlO6wmTZ27VuJ7ItS6__vtblZ
 04CC:27A0       _D6PL8tRJ10OmlO6wmTZ27VuJ7ItS7__ClassZ
 0ABB:00D6       _D6PL8tRJ10OmlO6wmTZ27ZJtA30S6__initZ
 04CC:26E8       _D6PL8tRJ10OmlO6wmTZ28ECnMyGDo6__initZ
 04CC:2760       _D6PL8tRJ10OmlO6wmTZ28ECnMyGDo6__vtblZ
 04CC:2710       _D6PL8tRJ10OmlO6wmTZ28ECnMyGDo7__ClassZ
 0000:2850       _D6PL8tRJ10OmlO6wmTZ28ICNEtjw7FZi
 04CC:25BC       _D6PL8tRJ10OmlO6wmTZ28YDkaikWm6__initZ
 0000:320C       _D6PL8tRJ10OmlO6wmTZ29GaH8HdxRF5_ctorMFE6PL8tRJ10OmlO6wmTZ213Hk3hHUF6rnXnaZC6PL8tRJ10OmlO6wmTZ29GaH8HdxRF
 0000:3224       _D6PL8tRJ10OmlO6wmTZ29GaH8HdxRF5_ctorMFZC6PL8tRJ10OmlO6wmTZ29GaH8HdxRF
 04CC:3090       _D6PL8tRJ10OmlO6wmTZ29GaH8HdxRF6__initZ
 04CC:3110       _D6PL8tRJ10OmlO6wmTZ29GaH8HdxRF6__vtblZ
 04CC:30C0       _D6PL8tRJ10OmlO6wmTZ29GaH8HdxRF7__ClassZ
 0000:31F4       _D6PL8tRJ10OmlO6wmTZ29HnH9zWNqz5_ctorMFC6PL8tRJ10OmlO6wmTZ27DkkGeNjZC6PL8tRJ10OmlO6wmTZ29HnH9zWNqz
 0000:31C8       _D6PL8tRJ10OmlO6wmTZ29HnH9zWNqz5_ctorMFE6PL8tRJ10OmlO6wmTZ213Hk3hHUF6rnXnaZC6PL8tRJ10OmlO6wmTZ29HnH9zWNqz
 0000:31E0       _D6PL8tRJ10OmlO6wmTZ29HnH9zWNqz5_ctorMFZC6PL8tRJ10OmlO6wmTZ29HnH9zWNqz
 04CC:2F70       _D6PL8tRJ10OmlO6wmTZ29HnH9zWNqz6__initZ
 04CC:2FF0       _D6PL8tRJ10OmlO6wmTZ29HnH9zWNqz6__vtblZ
 04CC:2FA0       _D6PL8tRJ10OmlO6wmTZ29HnH9zWNqz7__ClassZ
 0000:2C54       _D6PL8tRJ10OmlO6wmTZ29ZtcU2D9mO3G8sMFZk
 0000:2BA8       _D6PL8tRJ10OmlO6wmTZ29ZtcU2D9mO3KMNMFT6PL8tRJ10OmlO6wmTZ28YDkaikWmZv
 0000:2BC4       _D6PL8tRJ10OmlO6wmTZ29ZtcU2D9mO3KMNMFT6PL8tRJ10OmlO6wmTZ28YDkaikWmZv9__requireMFZv
 0000:2BD0       _D6PL8tRJ10OmlO6wmTZ29ZtcU2D9mO3KMNMFZv
 0000:2B68       _D6PL8tRJ10OmlO6wmTZ29ZtcU2D9mO5Gg2ffMFZk
 0000:2B94       _D6PL8tRJ10OmlO6wmTZ29ZtcU2D9mO5P88U6MFZv
 0000:2C30       _D6PL8tRJ10OmlO6wmTZ29ZtcU2D9mO5Z4RCQMFC6PL8tRJ10OmlO6wmTZ26YaxccjZi
 0000:2C0C       _D6PL8tRJ10OmlO6wmTZ29ZtcU2D9mO5Z4RCQMFT6PL8tRJ10OmlO6wmTZ28YDkaikWmZi
 0000:2B88       _D6PL8tRJ10OmlO6wmTZ29ZtcU2D9mO5_ctorMFZC6PL8tRJ10OmlO6wmTZ29ZtcU2D9mO
 0000:2B78       _D6PL8tRJ10OmlO6wmTZ29ZtcU2D9mO5_ctorMFkZC6PL8tRJ10OmlO6wmTZ29ZtcU2D9mO
 0000:2BF8       _D6PL8tRJ10OmlO6wmTZ29ZtcU2D9mO6Cw4UF9MFC6PL8tRJ10OmlO6wmTZ26YaxccjZv
 0000:2BE4       _D6PL8tRJ10OmlO6wmTZ29ZtcU2D9mO6Cw4UF9MFZv
 04CC:2D40       _D6PL8tRJ10OmlO6wmTZ29ZtcU2D9mO6__initZ
 04CC:2DC0       _D6PL8tRJ10OmlO6wmTZ29ZtcU2D9mO6__vtblZ
 0000:2C84       _D6PL8tRJ10OmlO6wmTZ29ZtcU2D9mO7JVTr16RMFZi
 04CC:2D70       _D6PL8tRJ10OmlO6wmTZ29ZtcU2D9mO7__ClassZ
 0000:2C6C       _D6PL8tRJ10OmlO6wmTZ29ZtcU2D9mO8QrVRKU9BMFZPS6PL8tRJ21TVpg3HUXi7OJv35xWEicq6IuZEzp
 04CC:3508       _D6PL8tRJ21TVpg3HUXi7OJv35xWEicq10X9Lz4f5l4yk
 0ABB:00FD       _D6PL8tRJ21TVpg3HUXi7OJv35xWEicq11PQg4Aeoacg1S6PL8tRJ21TVpg3HUXi7OJv35xWEicq8EOrIIyuh
 0ABB:0108       _D6PL8tRJ21TVpg3HUXi7OJv35xWEicq11YmLTddMpbxz6__initZ
 04CC:34B4       _D6PL8tRJ21TVpg3HUXi7OJv35xWEicq12DxvKbS83Dm6xi
 0ABB:0110       _D6PL8tRJ21TVpg3HUXi7OJv35xWEicq12XpLVZLwnR7X96__initZ
 04CC:34C0       _D6PL8tRJ21TVpg3HUXi7OJv35xWEicq12YUqD4BQFHgnMi
 04CC:3550       _D6PL8tRJ21TVpg3HUXi7OJv35xWEicq12__ModuleInfoZ
 04CC:34B0       _D6PL8tRJ21TVpg3HUXi7OJv35xWEicq14JJLBz8JiRi8d_Ck
 04CC:351C       _D6PL8tRJ21TVpg3HUXi7OJv35xWEicq15T1Y_HfTAnbBqrrnk
 0ABB:00E8       _D6PL8tRJ21TVpg3HUXi7OJv35xWEicq15VYfpCU2d8zp7h8Ci
 0ABB:00FE       _D6PL8tRJ21TVpg3HUXi7OJv35xWEicq16FVgo8Xm8Ocqwmbd4S6PL8tRJ21TVpg3HUXi7OJv35xWEicq8EOrIIyuh
 04CC:3520       _D6PL8tRJ21TVpg3HUXi7OJv35xWEicq16NPUgfR31lT7pOrzak
 04CC:34BC       _D6PL8tRJ21TVpg3HUXi7OJv35xWEicq17ZlUzUhtWMCj3bWUvki
 04CC:34B8       _D6PL8tRJ21TVpg3HUXi7OJv35xWEicq18CWYCNl6_z2TmlaCkfii
 0000:3278       _D6PL8tRJ21TVpg3HUXi7OJv35xWEicq5Ju3FLFtZt
 0000:3288       _D6PL8tRJ21TVpg3HUXi7OJv35xWEicq5NHAYUFkZk
 0000:32AC       _D6PL8tRJ21TVpg3HUXi7OJv35xWEicq5SzpniFkZk
 0000:3298       _D6PL8tRJ21TVpg3HUXi7OJv35xWEicq5V5U5MFtZt
 0000:3250       _D6PL8tRJ21TVpg3HUXi7OJv35xWEicq6EgUZcJFZv
 04CC:34C4       _D6PL8tRJ21TVpg3HUXi7OJv35xWEicq6EkQKqXi
 0ABB:00F0       _D6PL8tRJ21TVpg3HUXi7OJv35xWEicq6FVqUdW6__initZ
 0000:3268       _D6PL8tRJ21TVpg3HUXi7OJv35xWEicq6IAZidbFZv
 0ABB:00EC       _D6PL8tRJ21TVpg3HUXi7OJv35xWEicq6IuZEzp6__initZ
 0ABB:00E4       _D6PL8tRJ21TVpg3HUXi7OJv35xWEicq6Vrbb91k
 0ABB:00E0       _D6PL8tRJ21TVpg3HUXi7OJv35xWEicq7Bb5o7IV6__initZ
 0ABB:0112       _D6PL8tRJ21TVpg3HUXi7OJv35xWEicq7I0WKVvV6__initZ
 0ABB:00F4       _D6PL8tRJ21TVpg3HUXi7OJv35xWEicq7L3mgINA6__initZ
 0ABB:00F8       _D6PL8tRJ21TVpg3HUXi7OJv35xWEicq7L3mgINA7F6wINQn6__initZ
 0ABB:00F9       _D6PL8tRJ21TVpg3HUXi7OJv35xWEicq7L3mgINA7F6wINQn9VZXQFaXc66__initZ
 0ABB:00FA       _D6PL8tRJ21TVpg3HUXi7OJv35xWEicq7L3mgINA7F6wINQn9X34UajOge6__initZ
 04CC:34C8       _D6PL8tRJ21TVpg3HUXi7OJv35xWEicq7OidLgeti
 0ABB:00F2       _D6PL8tRJ21TVpg3HUXi7OJv35xWEicq7RvZMxWT6__initZ
 0ABB:00F3       _D6PL8tRJ21TVpg3HUXi7OJv35xWEicq7ZJtA30S6__initZ
 0000:3270       _D6PL8tRJ21TVpg3HUXi7OJv35xWEicq7ZWP2CiXFZv
 0ABB:00FB       _D6PL8tRJ21TVpg3HUXi7OJv35xWEicq8EOrIIyuh6__initZ
 0ABB:00FC       _D6PL8tRJ21TVpg3HUXi7OJv35xWEicq8EOrIIyuh8VRvGF4lP6__initZ
 0ABB:0100       _D6PL8tRJ21TVpg3HUXi7OJv35xWEicq8FPp_tQb36__initZ
 0000:3258       _D6PL8tRJ21TVpg3HUXi7OJv35xWEicq8Ks8qcOdqFkPS6PL8tRJ21TVpg3HUXi7OJv35xWEicq6IuZEzpZi
 0ABB:00F1       _D6PL8tRJ21TVpg3HUXi7OJv35xWEicq8PAwLzCh46__initZ
 0ABB:0111       _D6PL8tRJ21TVpg3HUXi7OJv35xWEicq8Phd4d0d86__initZ
 04CC:34F8       _D6PL8tRJ21TVpg3HUXi7OJv35xWEicq9__enum1996__initZ
 04CC:34FC       _D6PL8tRJ21TVpg3HUXi7OJv35xWEicq9__enum2006__initZ
 04CC:3500       _D6PL8tRJ21TVpg3HUXi7OJv35xWEicq9__enum2016__initZ
 04CC:3504       _D6PL8tRJ21TVpg3HUXi7OJv35xWEicq9__enum2026__initZ
 04CC:350C       _D6PL8tRJ21TVpg3HUXi7OJv35xWEicq9__enum2036__initZ
 04CC:3510       _D6PL8tRJ21TVpg3HUXi7OJv35xWEicq9__enum2046__initZ
 04CC:3514       _D6PL8tRJ21TVpg3HUXi7OJv35xWEicq9__enum2056__initZ
 04CC:3518       _D6PL8tRJ21TVpg3HUXi7OJv35xWEicq9__enum2066__initZ
 0000:364C       _D6PL8tRJ4KN8D10RjrPsze9T4FC6PL8tRJ4UVkL4UVkLZC6PL8tRJ4UVkL4UVkL
 04CC:4040       _D6PL8tRJ4KN8D12__ModuleInfoZ
 0000:35D4       _D6PL8tRJ4KN8D5crc32FZk
 0000:35E4       _D6PL8tRJ4KN8D8SOjEQLfWFC6PL8tRJ4UVkL4UVkLZC6PL8tRJ4UVkL4UVkL
 04CC:4028       _D6PL8tRJ4KN8D9__enum2076__initZ
 04CC:4BC0       _D6PL8tRJ4SCve10S4lHH6gZNI12__ModuleInfoZ
 0000:39C4       _D6PL8tRJ4SCve10S4lHH6gZNI14DEbkdp_8fRzMXX10En1dGiP4pjMFZv
 0000:39B0       _D6PL8tRJ4SCve10S4lHH6gZNI14DEbkdp_8fRzMXX10RAdCNF2OgbMFZC6PL8tRJ4SCve10S4lHH6gZNI14DEbkdp_8fRzMXX
 0000:38F0       _D6PL8tRJ4SCve10S4lHH6gZNI14DEbkdp_8fRzMXX12HMdN_NACWAJZFAaHAaAaZAa
 0000:39D8       _D6PL8tRJ4SCve10S4lHH6gZNI14DEbkdp_8fRzMXX12JOqnqkxLFXxqMFZv
 04CC:4410       _D6PL8tRJ4SCve10S4lHH6gZNI14DEbkdp_8fRzMXX12SiSxoKxhRhn7G1401a
 0000:390C       _D6PL8tRJ4SCve10S4lHH6gZNI14DEbkdp_8fRzMXX13GvcMeGjSyG4N5FAaHAaAaZAa
 04CC:49F0       _D6PL8tRJ4SCve10S4lHH6gZNI14DEbkdp_8fRzMXX13NsgbMwoffwOjQG195a
 0000:07D4       _D6PL8tRJ4SCve10S4lHH6gZNI14DEbkdp_8fRzMXX146__T9Q3dUAuae1TS8mainfile3Fzo9YhNRZAzZrMFC6PL8tRJ4SC0DCF90446326D7659B1437C69055A411
 0000:06F0       _D6PL8tRJ4SCve10S4lHH6gZNI14DEbkdp_8fRzMXX147__T9Q3dUAuae1TS8mainfile3Fzo9YhNRZAzZrMFC6PL8tRJ4SCDB3A4F9E4D8809CB8F21FBCA21D5F36D
 0000:080C       _D6PL8tRJ4SCve10S4lHH6gZNI14DEbkdp_8fRzMXX152__T9Q3dUAuae1TS8mainfile3Fzo9YhNRZAzZrMFC6PL8tRJ4SC0E646DA218334DA7771D29CC95FE8E20
 0000:0748       _D6PL8tRJ4SCve10S4lHH6gZNI14DEbkdp_8fRzMXX158__T9Q3dUAuae1TS8mainfile3Fzo9YhNRZAzZrMFC6PL8tRJ4SCF26417C0939C9E6216191A8DF1D36FD2
 04CC:4990       _D6PL8tRJ4SCve10S4lHH6gZNI14DEbkdp_8fRzMXX15Um78bjCLho95gT9G90a
 0000:077C       _D6PL8tRJ4SCve10S4lHH6gZNI14DEbkdp_8fRzMXX160__T9Q3dUAuae1TS8mainfile3Fzo9YhNRZAzZrMFC6PL8tRJ4SCF466868EE810C313FE2300D422D65C1E
 0000:3968       _D6PL8tRJ4SCve10S4lHH6gZNI14DEbkdp_8fRzMXX17QSCbRI1soUeeXY1sAMFZv
 0000:07A8       _D6PL8tRJ4SCve10S4lHH6gZNI14DEbkdp_8fRzMXX18__T9Q3dUAuae1TG2aZ9Q3dUAuae1MFG2aZC6PL8tRJ4SCve10S4lHH6gZNI14DEbkdp_8fRzMXX
 0000:3990       _D6PL8tRJ4SCve10S4lHH6gZNI14DEbkdp_8fRzMXX20KDBDJIn7JXgRdldu3SR3FE6PL8tRJ4SCve6V8eQAW14HwC6ax58bnXVraZAa
 0000:071C       _D6PL8tRJ4SCve10S4lHH6gZNI14DEbkdp_8fRzMXX40__T9Q3dUAuae1TAS8mainfile12SWhnfUrJKQ7nZÄä•MFÄö¶CÄ®˘
 0000:39EC       _D6PL8tRJ4SCve10S4lHH6gZNI14DEbkdp_8fRzMXX5_ctorMFZC6PL8tRJ4SCve10S4lHH6gZNI14DEbkdp_8fRzMXX
 0000:3878       _D6PL8tRJ4SCve10S4lHH6gZNI14DEbkdp_8fRzMXX5_dtorMFZv
 04CC:4AB4       _D6PL8tRJ4SCve10S4lHH6gZNI14DEbkdp_8fRzMXX6__initZ
 04CC:4B40       _D6PL8tRJ4SCve10S4lHH6gZNI14DEbkdp_8fRzMXX6__vtblZ
 04CC:4AF0       _D6PL8tRJ4SCve10S4lHH6gZNI14DEbkdp_8fRzMXX7__ClassZ
 0000:3898       _D6PL8tRJ4SCve10S4lHH6gZNI14DEbkdp_8fRzMXX8UkxH3uX8MFZC6PL8tRJ4SCve10S4lHH6gZNI14DEbkdp_8fRzMXX
 0000:3884       _D6PL8tRJ4SCve10S4lHH6gZNI14DEbkdp_8fRzMXX9DM4TkSJhnMFZv
 0000:397C       _D6PL8tRJ4SCve10S4lHH6gZNI14DEbkdp_8fRzMXX9Onfy2jvTxMFZv
 0000:38AC       _D6PL8tRJ4SCve10S4lHH6gZNI14DEbkdp_8fRzMXX9S0PmyzukxMFAaZC6PL8tRJ4SCve10S4lHH6gZNI14DEbkdp_8fRzMXX
 0000:38C8       _D6PL8tRJ4SCve10S4lHH6gZNI14DEbkdp_8fRzMXX9S0PmyzukxMFZC6PL8tRJ4SCve10S4lHH6gZNI14DEbkdp_8fRzMXX
 0000:38DC       _D6PL8tRJ4SCve10S4lHH6gZNI14DEbkdp_8fRzMXX9ViWmTXAgiMFZC6PL8tRJ4SCve10S4lHH6gZNI14DEbkdp_8fRzMXX
 0000:3E64       _D6PL8tRJ4SCve4DobM10MReeZuNVi810FtEmQuKuHuMFZAa
 0000:3DC4       _D6PL8tRJ4SCve4DobM10MReeZuNVi814XutuJCzXsSe6V5MFZv
 0000:3D68       _D6PL8tRJ4SCve4DobM10MReeZuNVi84NNu3MFZa
 0000:3CD8       _D6PL8tRJ4SCve4DobM10MReeZuNVi84UbUwMFZa
 0000:3D30       _D6PL8tRJ4SCve4DobM10MReeZuNVi85LT3jIMFZAa
 0000:3DF4       _D6PL8tRJ4SCve4DobM10MReeZuNVi86ZDPj8mMFaZv
 0ABB:0130       _D6PL8tRJ4SCve4DobM10MReeZuNVi86__initZ
 0000:3E9C       _D6PL8tRJ4SCve4DobM10MReeZuNVi88WGW4ZuXjMFZb
 04CC:4CF0       _D6PL8tRJ4SCve4DobM12__ModuleInfoZ
 0000:41B0       _D6PL8tRJ4SCve4DobM13__T6SyjXG1TaZ6SyjXG1FaZAa
 0000:3FA4       _D6PL8tRJ4SCve4DobM13__T6SyjXG1TbZ6SyjXG1FbZAa
 0000:40DC       _D6PL8tRJ4SCve4DobM13__T6SyjXG1ThZ6SyjXG1FhZAa
 0000:3F90       _D6PL8tRJ4SCve4DobM13__T6SyjXG1TiZ6SyjXG1FiZAa
 0000:430C       _D6PL8tRJ4SCve4DobM13__T6SyjXG1TkZ6SyjXG1FkZAa
 0000:40F0       _D6PL8tRJ4SCve4DobM13__T6SyjXG1TmZ6SyjXG1FmZAa
 0000:3BC8       _D6PL8tRJ4SCve4DobM143__T6SyjXG1TS8mainfile3Fzo9YhNRZAzZrMFC6PL8tRJ4SCve6V8eQAW11LSCyILakhEkC6PLA15176A6A8C27F931AA981AECE8D3EFA
 0000:3A00       _D6PL8tRJ4SCve4DobM144__T6SyjXG1TS8mainfile3Fzo9YhNRZAzZrMFC6PL8tRJ4SCve6V8eQAW11LSCyILakhEkC6PLA5FF6C1202919893B69C6A2872C212F5
 0000:3EE0       _D6PL8tRJ4SCve4DobM147__T6SyjXG1TS8mainfile3Fzo9YhNRZAzZrMFC6PL8tRJ4SCve6V8eQAW11LSCyILakhEkC6PL5D57F60A5824BF4D1F27BF0671C06369
 0000:3ECC       _D6PL8tRJ4SCve4DobM148__T6SyjXG1TAS8mainfile3Fzo9YhNRZAzZrMFC6PL8tRJ4SCve6V8eQAW11LSCyILakhEkC6PB0CF8E3785A51282C3E6925E004B7270
 0000:3C9C       _D6PL8tRJ4SCve4DobM149__T6SyjXG1TS8mainfile3Fzo9YhNRZAzZrMFC6PL8tRJ4SCve6V8eQAW11LSCyILakhEkC6PLEA7F7859E77DD4745333C24C51E8D25C
 0000:4334       _D6PL8tRJ4SCve4DobM14__T6SyjXG1TAaZ6SyjXG1FAaZAa
 0000:40C8       _D6PL8tRJ4SCve4DobM14__T6SyjXG1TAhZ6SyjXG1FAhZAa
 0000:3A9C       _D6PL8tRJ4SCve4DobM155__T6SyjXG1TS8mainfile3Fzo9YhNRZAzZrMFC6PL8tRJ4SCve6V8eQAW11LSCyILakhEkC6PLFBAEB96A8ADC8A9FB22A41E3966F352B
 0000:3B58       _D6PL8tRJ4SCve4DobM157__T6SyjXG1TS8mainfile3Fzo9YhNRZAzZrMFC6PL8tRJ4SCve6V8eQAW11LSCyILakhEkC6PL73057F9B00C711E57DD0E0328E8682C1
 0000:4320       _D6PL8tRJ4SCve4DobM15__T6SyjXG1TAAaZ6SyjXG1FAAaZAa
 0000:3B94       _D6PL8tRJ4SCve4DobM15__T6SyjXG1TG2aZ6SyjXG1FG2aZAa
 0000:419C       _D6PL8tRJ4SCve4DobM19__T10N5VUVo8_2fVb0Z10N5VUVo8_2fFAaZAa
 0000:4104       _D6PL8tRJ4SCve4DobM19__T10N5VUVo8_2fVb1Z10N5VUVo8_2fFAaZAa
 0000:4118       _D6PL8tRJ4SCve4DobM19__T10N5VUVo8_2fVb1Z10N5VUVo8_2fFAaZAa16__foreachbody182MFKwZi
 0000:41C4       _D6PL8tRJ4SCve4DobM29__T6SyjXG1TS7gcstats7GCStatsZ6SyjXG1FS7gcstats7GCStatsZAa
 0000:3FB8       _D6PL8tRJ4SCve4DobM36__T6SyjXG1TS8mainfile12SWhnfUrJKQ7nZ6SyjXG1FS8mainfile12SWhnfUrJKQ7nZAa
 0000:3A88       _D6PL8tRJ4SCve4DobM37__T6SyjXG1TAS8mainfile12SWhnfUrJKQ7nZ6SyjXG1FAS8mainfile12SWhnfUrJKQ7nZAa
 0000:4040       _D6PL8tRJ4SCve4DobM37__T6SyjXG1TS7WrsbrqT14BP8X5RPsfAmCkRZ6SyjXG1FS7WrsbrqT14BP8X5RPsfAmCkRZAa
 0000:4364       _D6PL8tRJ4SCve4DobM7__arrayZ
 0000:095C       _D6PL8tRJ4SCve6KzLZGz10YM9VdJR9vJ10IvEfmqD2YH10EggRRDNm8vMFZv
 0000:08A8       _D6PL8tRJ4SCve6KzLZGz10YM9VdJR9vJ10IvEfmqD2YH12EMcXZ72Xw0SpMFC6PL8tRJ4SCve6V8eQAW12Nd4PsjPBdmpzZv
 0000:08EC       _D6PL8tRJ4SCve6KzLZGz10YM9VdJR9vJ10IvEfmqD2YH12EMcXZ72Xw0SpMFC6PL8tRJ4SCve6V8eQAW12Nd4PsjPBdmpzZv16__foreachbody183MFKAaKAaZi
 0000:086C       _D6PL8tRJ4SCve6KzLZGz10YM9VdJR9vJ10IvEfmqD2YH12JvCAfK0PL9AGMFZv
 0000:0880       _D6PL8tRJ4SCve6KzLZGz10YM9VdJR9vJ10IvEfmqD2YH14KjLxGPJ2U3XqwVMFZv
 0000:0894       _D6PL8tRJ4SCve6KzLZGz10YM9VdJR9vJ10IvEfmqD2YH14TliX2AOGMZt108MFZv
 0000:0854       _D6PL8tRJ4SCve6KzLZGz10YM9VdJR9vJ10IvEfmqD2YH5_ctorMFZC6PL8tRJ4SCve6KzLZGz10YM9VdJR9vJ10IvEfmqD2YH
 0000:0860       _D6PL8tRJ4SCve6KzLZGz10YM9VdJR9vJ10IvEfmqD2YH5_dtorMFZv
 04CC:0A48       _D6PL8tRJ4SCve6KzLZGz10YM9VdJR9vJ10IvEfmqD2YH6__initZ
 04CC:0AD0       _D6PL8tRJ4SCve6KzLZGz10YM9VdJR9vJ10IvEfmqD2YH6__vtblZ
 04CC:0A80       _D6PL8tRJ4SCve6KzLZGz10YM9VdJR9vJ10IvEfmqD2YH7__ClassZ
 0000:09C8       _D6PL8tRJ4SCve6KzLZGz10YM9VdJR9vJ5WdoHJMFZv
 0000:0988       _D6PL8tRJ4SCve6KzLZGz10YM9VdJR9vJ5_ctorMFZC6PL8tRJ4SCve6KzLZGz10YM9VdJR9vJ
 0000:0994       _D6PL8tRJ4SCve6KzLZGz10YM9VdJR9vJ5_dtorMFZv
 0000:09A0       _D6PL8tRJ4SCve6KzLZGz10YM9VdJR9vJ6MTQOz5MFtAaZt
 04CC:0AFC       _D6PL8tRJ4SCve6KzLZGz10YM9VdJR9vJ6__initZ
 04CC:0B80       _D6PL8tRJ4SCve6KzLZGz10YM9VdJR9vJ6__vtblZ
 0000:0970       _D6PL8tRJ4SCve6KzLZGz10YM9VdJR9vJ7MP4fQpdMFZv
 04CC:0B30       _D6PL8tRJ4SCve6KzLZGz10YM9VdJR9vJ7__ClassZ
 0000:097C       _D6PL8tRJ4SCve6KzLZGz10YM9VdJR9vJ8ZLZEsd1JMFZv
 04CC:0BC0       _D6PL8tRJ4SCve6KzLZGz12__ModuleInfoZ
 0000:4478       _D6PL8tRJ4SCve6S9FDhs10Jwa30kxluS12D1gt6wt8N6lRMFZv
 0000:4484       _D6PL8tRJ4SCve6S9FDhs10Jwa30kxluS5_ctorMFZC6PL8tRJ4SCve6S9FDhs10Jwa30kxluS
 0000:4490       _D6PL8tRJ4SCve6S9FDhs10Jwa30kxluS5_dtorMFZv
 04CC:4DF0       _D6PL8tRJ4SCve6S9FDhs10Jwa30kxluS6__initZ
 04CC:4E70       _D6PL8tRJ4SCve6S9FDhs10Jwa30kxluS6__vtblZ
 0000:449C       _D6PL8tRJ4SCve6S9FDhs10Jwa30kxluS7SqFRCMPMFZv
 04CC:4E20       _D6PL8tRJ4SCve6S9FDhs10Jwa30kxluS7__ClassZ
 0000:4380       _D6PL8tRJ4SCve6S9FDhs10Jwa30kxluS9C_RooF5OlMFZv
 0000:4408       _D6PL8tRJ4SCve6S9FDhs10Jwa30kxluS9C_RooF5OlMFZv16__foreachbody188MFKAaKAaZi
 0000:44B0       _D6PL8tRJ4SCve6S9FDhs10Jwa30kxluS9ZVCM29taEMFZb
 04CC:4EC0       _D6PL8tRJ4SCve6S9FDhs12__ModuleInfoZ
 0000:337C       _D6PL8tRJ4SCve6V8eQAW11LSCyILakhEk3GjWMFZAa
 0000:3368       _D6PL8tRJ4SCve6V8eQAW11LSCyILakhEk4GzuaMFAaZv
 0000:3318       _D6PL8tRJ4SCve6V8eQAW11LSCyILakhEk4GzuaMFZAa
 0000:32CC       _D6PL8tRJ4SCve6V8eQAW11LSCyILakhEk5_ctorMFAaZC6PL8tRJ4SCve6V8eQAW11LSCyILakhEk
 0000:32C0       _D6PL8tRJ4SCve6V8eQAW11LSCyILakhEk5_ctorMFZC6PL8tRJ4SCve6V8eQAW11LSCyILakhEk
 0000:32DC       _D6PL8tRJ4SCve6V8eQAW11LSCyILakhEk5_dtorMFZv
 04CC:3CF0       _D6PL8tRJ4SCve6V8eQAW11LSCyILakhEk6__initZ
 04CC:3D90       _D6PL8tRJ4SCve6V8eQAW11LSCyILakhEk6__vtblZ
 04CC:3D40       _D6PL8tRJ4SCve6V8eQAW11LSCyILakhEk7__ClassZ
 0000:3304       _D6PL8tRJ4SCve6V8eQAW11LSCyILakhEk8NwsDVtYKMFAaZv
 0000:32E8       _D6PL8tRJ4SCve6V8eQAW11LSCyILakhEk8NwsDVtYKMFZAa
 0000:33EC       _D6PL8tRJ4SCve6V8eQAW11LSCyILakhEk9HDYeJQvw4MFZt
 0000:33D0       _D6PL8tRJ4SCve6V8eQAW11LSCyILakhEk9PvGikCY6QMFZAa
 04CC:3C30       _D6PL8tRJ4SCve6V8eQAW11WaS0xDC4g0p6__initZ
 04CC:3CB0       _D6PL8tRJ4SCve6V8eQAW11WaS0xDC4g0p6__vtblZ
 04CC:3C60       _D6PL8tRJ4SCve6V8eQAW11WaS0xDC4g0p7__ClassZ
 0000:343C       _D6PL8tRJ4SCve6V8eQAW12Nd4PsjPBdmpz10Em8ezUgIThMFZC6PL8tRJ4UVkL4UVkL
 0000:3450       _D6PL8tRJ4SCve6V8eQAW12Nd4PsjPBdmpz10IOG_xGNd99MFZv
 0000:341C       _D6PL8tRJ4SCve6V8eQAW12Nd4PsjPBdmpz16BCmhv2voBJ7O2_Z9FE6PL8tRJ4SCve6V8eQAW14HwC6ax58bnXVraZAa
 0000:3404       _D6PL8tRJ4SCve6V8eQAW12Nd4PsjPBdmpz5_ctorMFZC6PL8tRJ4SCve6V8eQAW12Nd4PsjPBdmpz
 0000:3410       _D6PL8tRJ4SCve6V8eQAW12Nd4PsjPBdmpz5_dtorMFZv
 04CC:3DF8       _D6PL8tRJ4SCve6V8eQAW12Nd4PsjPBdmpz6__initZ
 04CC:3E80       _D6PL8tRJ4SCve6V8eQAW12Nd4PsjPBdmpz6__vtblZ
 04CC:3E30       _D6PL8tRJ4SCve6V8eQAW12Nd4PsjPBdmpz7__ClassZ
 0000:3464       _D6PL8tRJ4SCve6V8eQAW12Nd4PsjPBdmpz8SOjEQLfWMFZv
 04CC:3F00       _D6PL8tRJ4SCve6V8eQAW12__ModuleInfoZ
 0000:3478       _D6PL8tRJ4SCve6V8eQAW13Ugyo1hRFwLgyCFAaZAAa
 0000:3504       _D6PL8tRJ4SCve6V8eQAW13Ugyo1hRFwLgyCFAaZAAa4Uytd5DnqtbMFZi
 0ABB:0120       _D6PL8tRJ4SCve6V8eQAW13Ugyo1hRFwLgyCFAaZAAa4Uytd6__initZ
 0000:3538       _D6PL8tRJ4SCve6V8eQAW13Ugyo1hRFwLgyCFAaZAAa4Uytd6opCallFAaZS6PL8tRJ4SCve6V8eQAW13Ugyo1hRFwLgyCFAaZAAa4Uytd
 04CC:3DE6       _D6PL8tRJ4SCve6V8eQAW14HwC6ax58bnXVra6__initZ
 0000:3594       _D6PL8tRJ4SCve6V8eQAW14RBDxxsSLJ_ozqfFAaZl
 0000:355C       _D6PL8tRJ4SCve6V8eQAW18BPZKuIu2GRF1M_5sxaFZAa
 0000:354C       _D6PL8tRJ4SCve6V8eQAW18HcRx6L48dIxPtROcVfFZAa
 0000:356C       _D6PL8tRJ4SCve6V8eQAW19GaBLgBcppvTLmNILleSFZHAaAa
 0000:35B8       _D6PL8tRJ4SCve6V8eQAW7__arrayZ
 0000:3578       _D6PL8tRJ4SCve6V8eQAW8GOEPhNuPFlZAa
 0000:3794       _D6PL8tRJ4U7NC10CShi9fdEHC10RjrPsze9T4MFZC6PL8tRJ4UVkL4UVkL
 0000:37B4       _D6PL8tRJ4U7NC10CShi9fdEHC10RjrPsze9T4MFZC6PL8tRJ4UVkL4UVkL9__requireMFZv
 0000:37C0       _D6PL8tRJ4U7NC10CShi9fdEHC5GrSy_MFZC6PL8tRJ4UVkL4UVkL
 0000:37FC       _D6PL8tRJ4U7NC10CShi9fdEHC5GrSy_MFZC6PL8tRJ4UVkL4UVkL8__ensureMFKC6PL8tRJ4UVkL4UVkLZv
 0000:37F0       _D6PL8tRJ4U7NC10CShi9fdEHC5GrSy_MFZC6PL8tRJ4UVkL4UVkL9__requireMFZv
 0000:3758       _D6PL8tRJ4U7NC10CShi9fdEHC5J546GMFZv
 0000:377C       _D6PL8tRJ4U7NC10CShi9fdEHC5_ctorMFZC6PL8tRJ4U7NC10CShi9fdEHC
 0000:376C       _D6PL8tRJ4U7NC10CShi9fdEHC5_ctorMFkZC6PL8tRJ4U7NC10CShi9fdEHC
 0000:3788       _D6PL8tRJ4U7NC10CShi9fdEHC5_dtorMFZv
 04CC:41F0       _D6PL8tRJ4U7NC10CShi9fdEHC6__initZ
 04CC:4260       _D6PL8tRJ4U7NC10CShi9fdEHC6__vtblZ
 04CC:4210       _D6PL8tRJ4U7NC10CShi9fdEHC7__ClassZ
 0000:36D4       _D6PL8tRJ4U7NC10RjrPsze9T4FC6PL8tRJ4UVkL4UVkLZC6PL8tRJ4UVkL4UVkL
 04CC:4330       _D6PL8tRJ4U7NC12__ModuleInfoZ
 0000:3660       _D6PL8tRJ4U7NC13L1Icn66DY7CCJ5_ctorMFZC6PL8tRJ4U7NC13L1Icn66DY7CCJ
 04CC:40C0       _D6PL8tRJ4U7NC13L1Icn66DY7CCJ6__initZ
 04CC:4140       _D6PL8tRJ4U7NC13L1Icn66DY7CCJ6__vtblZ
 04CC:40F0       _D6PL8tRJ4U7NC13L1Icn66DY7CCJ7__ClassZ
 0000:3834       _D6PL8tRJ4U7NC16IrxQ0oM8iZ6855c410RjrPsze9T4MFZb
 0000:3850       _D6PL8tRJ4U7NC16IrxQ0oM8iZ6855c410RjrPsze9T4MFZb9__requireMFZv
 0000:3808       _D6PL8tRJ4U7NC16IrxQ0oM8iZ6855c45J546GMFZv
 0000:381C       _D6PL8tRJ4U7NC16IrxQ0oM8iZ6855c45_ctorMFZC6PL8tRJ4U7NC16IrxQ0oM8iZ6855c4
 0000:3828       _D6PL8tRJ4U7NC16IrxQ0oM8iZ6855c45_dtorMFZv
 04CC:4288       _D6PL8tRJ4U7NC16IrxQ0oM8iZ6855c46__initZ
 04CC:4300       _D6PL8tRJ4U7NC16IrxQ0oM8iZ6855c46__vtblZ
 04CC:42B0       _D6PL8tRJ4U7NC16IrxQ0oM8iZ6855c47__ClassZ
 0000:3694       _D6PL8tRJ4U7NC5crc32FkAvZk
 0000:367C       _D6PL8tRJ4U7NC7adler32FkAvZk
 0000:3718       _D6PL8tRJ4U7NC8LrOc4J0V5GrSy_MFZC6PL8tRJ4UVkL4UVkL
 0000:374C       _D6PL8tRJ4U7NC8LrOc4J0V5GrSy_MFZC6PL8tRJ4UVkL4UVkL9__requireMFZv
 0000:36E8       _D6PL8tRJ4U7NC8LrOc4J0V5_ctorMFZC6PL8tRJ4U7NC8LrOc4J0V
 0000:36F4       _D6PL8tRJ4U7NC8LrOc4J0V5_dtorMFZv
 04CC:4158       _D6PL8tRJ4U7NC8LrOc4J0V6__initZ
 04CC:41D0       _D6PL8tRJ4U7NC8LrOc4J0V6__vtblZ
 04CC:4180       _D6PL8tRJ4U7NC8LrOc4J0V7__ClassZ
 0000:3700       _D6PL8tRJ4U7NC8LrOc4J0V8SOjEQLfWMFZC6PL8tRJ4UVkL4UVkL
 0000:36BC       _D6PL8tRJ4U7NC8SOjEQLfWFC6PL8tRJ4UVkL4UVkLZC6PL8tRJ4UVkL4UVkL
 0000:36AC       _D6PL8tRJ4U7NC8SOjEQLfWFC6PL8tRJ4UVkL4UVkLiZC6PL8tRJ4UVkL4UVkL
 0000:385C       _D6PL8tRJ4U7NC8__assertFiZv
 04CC:40B8       _D6PL8tRJ4U7NC9__enum2086__initZ
 0ABB:00B0       _D6PL8tRJ4UVkL10B373yoRelyk
 0ABB:00BC       _D6PL8tRJ4UVkL10Yq7HtWD7qKk
 0000:2800       _D6PL8tRJ4UVkL11OpqlALYtxRh10Tfn0c7cepkFZv
 0000:2808       _D6PL8tRJ4UVkL11OpqlALYtxRh12_staticCtor6FZv
 0ABB:00C0       _D6PL8tRJ4UVkL11OpqlALYtxRh18AJYDfjeKtnlLSLmTeTk
 0000:2830       _D6PL8tRJ4UVkL11OpqlALYtxRh4PuDnFZv
 0000:27CC       _D6PL8tRJ4UVkL11OpqlALYtxRh5_ctorMFZC6PL8tRJ4UVkL11OpqlALYtxRh
 0000:27D8       _D6PL8tRJ4UVkL11OpqlALYtxRh5_dtorMFZv
 0000:2810       _D6PL8tRJ4UVkL11OpqlALYtxRh6FVspkuFKkZPv
 04CC:23F0       _D6PL8tRJ4UVkL11OpqlALYtxRh6__initZ
 04CC:2470       _D6PL8tRJ4UVkL11OpqlALYtxRh6__vtblZ
 04CC:2420       _D6PL8tRJ4UVkL11OpqlALYtxRh7__ClassZ
 0000:27E4       _D6PL8tRJ4UVkL11OpqlALYtxRh8Pf7_il5HMFZAv
 0ABB:00C4       _D6PL8tRJ4UVkL11OpqlALYtxRh8QL9CMCkQk
 04CC:23EC       _D6PL8tRJ4UVkL11OpqlALYtxRh9__enum1986__initZ
 0ABB:00C8       _D6PL8tRJ4UVkL11YguACTBDPnK6__initZ
 04CC:24A0       _D6PL8tRJ4UVkL12__ModuleInfoZ
 0000:270C       _D6PL8tRJ4UVkL14ELPrtkYhfsCL2tFC3std6stream6StreamZC6PL8tRJ4UVkL4UVkL
 0ABB:00B4       _D6PL8tRJ4UVkL14KLu4vHdFY41Cbek
 0000:2838       _D6PL8tRJ4UVkL14UwVxLIdJB3GnauFkZk
 0000:2508       _D6PL8tRJ4UVkL4UVkL11KqZs3CEQfrZMFAvZC6PL8tRJ4UVkL4UVkL
 0000:252C       _D6PL8tRJ4UVkL4UVkL11KqZs3CEQfrZMFC6PL8tRJ4UVkL4UVkLZC6PL8tRJ4UVkL4UVkL
 0000:2560       _D6PL8tRJ4UVkL4UVkL11KqZs3CEQfrZMFhZC6PL8tRJ4UVkL4UVkL
 0000:23B0       _D6PL8tRJ4UVkL4UVkL11__invariantMFZv
 0000:2410       _D6PL8tRJ4UVkL4UVkL14DbJSRR4crzge99MFZv
 0000:24F4       _D6PL8tRJ4UVkL4UVkL15EkhiifewwptjuX3FkZk
 0000:26D4       _D6PL8tRJ4UVkL4UVkL3dupMFZC6PL8tRJ4UVkL4UVkL
 0000:2668       _D6PL8tRJ4UVkL4UVkL3ptrMFZPv
 0000:242C       _D6PL8tRJ4UVkL4UVkL5VvO8kMFZv
 0000:23BC       _D6PL8tRJ4UVkL4UVkL5_ctorMFAvZC6PL8tRJ4UVkL4UVkL
 0000:23F4       _D6PL8tRJ4UVkL4UVkL5_ctorMFC6PL8tRJ4UVkL11OpqlALYtxRhZC6PL8tRJ4UVkL4UVkL
 0000:23D8       _D6PL8tRJ4UVkL4UVkL5_ctorMFZC6PL8tRJ4UVkL4UVkL
 0000:2448       _D6PL8tRJ4UVkL4UVkL5opCatMFAvZC6PL8tRJ4UVkL4UVkL
 0000:2484       _D6PL8tRJ4UVkL4UVkL5opCatMFC6PL8tRJ4UVkL4UVkLZC6PL8tRJ4UVkL4UVkL
 0000:2598       _D6PL8tRJ4UVkL4UVkL6S0JFukMFZC6PL8tRJ4UVkL4UVkL
 04CC:2310       _D6PL8tRJ4UVkL4UVkL6__initZ
 04CC:2390       _D6PL8tRJ4UVkL4UVkL6__vtblZ
 0000:2690       _D6PL8tRJ4UVkL4UVkL6lengthMFZk
 0000:26B8       _D6PL8tRJ4UVkL4UVkL6lengthMFkZv
 0000:25BC       _D6PL8tRJ4UVkL4UVkL7XGT3b_pMFZC6PL8tRJ4UVkL4UVkL
 0000:25F4       _D6PL8tRJ4UVkL4UVkL7XGT3b_pMFkZC6PL8tRJ4UVkL4UVkL
 04CC:2340       _D6PL8tRJ4UVkL4UVkL7__ClassZ
 0000:24B8       _D6PL8tRJ4UVkL4UVkL7opCat_rMFAvZC6PL8tRJ4UVkL4UVkL
 0000:262C       _D6PL8tRJ4UVkL4UVkL8Pf7_il5HMFZAv
 04CC:2300       _D6PL8tRJ4UVkL4UVkL9__enum1976__initZ
 0000:2730       _D6PL8tRJ4UVkL8MuZVzSVHFZC6PL8tRJ4UVkL4UVkL
 0ABB:00B8       _D6PL8tRJ4UVkL9HHjqOzgv9k
 0000:1B74       _D6PL8tRJ5S_8Ue10Ab7pSyG2CPFAaAaZb
 0000:2110       _D6PL8tRJ5S_8Ue10DpS6nmCppmFZv
 0000:2108       _D6PL8tRJ5S_8Ue10O8qpvSPivoFZv
 04CC:2148       _D6PL8tRJ5S_8Ue10QgSXDcegElAa
 0000:224C       _D6PL8tRJ5S_8Ue10RyrBqJDKT8FAaZAa
 0000:1B04       _D6PL8tRJ5S_8Ue10SVIqFGOvmfFZAa
 0000:22A0       _D6PL8tRJ5S_8Ue10__T3GlcTlZ3GlcFlZl
 0000:2128       _D6PL8tRJ5S_8Ue11C_ghe9yGo98FAaZAAa
 04CC:1FC0       _D6PL8tRJ5S_8Ue11CfBHTwLXdcAAk
 0000:2120       _D6PL8tRJ5S_8Ue11HOcBhyKzCx0FbLAaZv
 0000:1D30       _D6PL8tRJ5S_8Ue11IGs7ghZiZpaFAvkZk
 0000:1B94       _D6PL8tRJ5S_8Ue11VD9mxq6r9NRFAaZb
 0ABB:00A4       _D6PL8tRJ5S_8Ue11WyR5ZYgEvNDk
 0000:1EE0       _D6PL8tRJ5S_8Ue12BYb8E8yapCjLFiiiiiiZi
 0000:1F28       _D6PL8tRJ5S_8Ue12BYb8E8yapCjLFiiiiiiZi14__dgliteral185MFZAa
 0000:1C14       _D6PL8tRJ5S_8Ue12CxvePUvbrHnSFZAa
 0000:1BF4       _D6PL8tRJ5S_8Ue12GhrxnA1UNW5yFAAaZAa
 0000:1BEC       _D6PL8tRJ5S_8Ue12KL015UxFfyY7FZb
 0000:1F4C       _D6PL8tRJ5S_8Ue12KoWLKu0PE2HEFiiiiiiZl
 0000:1D0C       _D6PL8tRJ5S_8Ue12Ti3xS2ty7PEmFAaZAh
 04CC:2210       _D6PL8tRJ5S_8Ue12__ModuleInfoZ
 0000:06B0       _D6PL8tRJ5S_8Ue12__T3G8sTiTiZ3G8sFiiZi
 0000:1278       _D6PL8tRJ5S_8Ue12__T3G8sTiTlZ3G8sFilZl
 0000:2324       _D6PL8tRJ5S_8Ue12__T3GlcTAAiZ3GlcFAAiZAAi
 0000:0F78       _D6PL8tRJ5S_8Ue12__T3GlcTlTlZ3GlcFllZl
 0000:1ED8       _D6PL8tRJ5S_8Ue12_staticCtor3FZv
 0000:20F8       _D6PL8tRJ5S_8Ue12_staticCtor4FZv
 0000:2100       _D6PL8tRJ5S_8Ue12_staticDtor5FZv
 0000:21E4       _D6PL8tRJ5S_8Ue13Bc_FiO3fKz494FZv
 0000:1C24       _D6PL8tRJ5S_8Ue13Ct8pncUn6v1D2FAaZAa
 0000:1F84       _D6PL8tRJ5S_8Ue13DFVNJWxk3ucVpFAaZl
 0000:1B14       _D6PL8tRJ5S_8Ue14D118AyuWqrVUWOFAaAaZi
 0000:1B64       _D6PL8tRJ5S_8Ue14MhdiNsviG9FVJcFZAa
 0000:2048       _D6PL8tRJ5S_8Ue14QQF6EBVLHudaLhFZl
 0000:2190       _D6PL8tRJ5S_8Ue14V_KmVgkayEXNr8FAaZAa
 0000:2340       _D6PL8tRJ5S_8Ue14__T3GlcTiTAAiZ3GlcFiAAiZAAi
 0000:213C       _D6PL8tRJ5S_8Ue15EcthgTpzFeMHpQzFAaZAa
 0000:1E70       _D6PL8tRJ5S_8Ue15KocCO3Co4CAtsR7FZS3std1c7windows7windows8FILETIME
 0000:1E7C       _D6PL8tRJ5S_8Ue15Thb5sxAGWRNmCb5FPS3std1c7windows7windows8FILETIMEZl
 0000:235C       _D6PL8tRJ5S_8Ue15__T8GwfGlDS3ThZ8GwfGlDS3FAhkhZAh
 0000:1B5C       _D6PL8tRJ5S_8Ue16HeVdg434ipQjfeGGFZf
 0ABB:00A8       _D6PL8tRJ5S_8Ue16OlRR2JfDBGI2s5Y4AAa
 0000:2010       _D6PL8tRJ5S_8Ue16V6U6o15mbRrpGpUiFlZAa
 0000:2304       _D6PL8tRJ5S_8Ue16__T3GlcTAAiTAAiZ3GlcFAAiAAiZAAi
 0000:06C8       _D6PL8tRJ5S_8Ue16__T5FagXzTAaTAaZ5FagXzFHAaAaAaAaZAa
 0000:2370       _D6PL8tRJ5S_8Ue16__T9OraaTASxNTiZ9OraaTASxNFikZAi
 0000:22BC       _D6PL8tRJ5S_8Ue16__T9TOSqK4CFdTiZ9TOSqK4CFdFkkZAAi
 0000:2034       _D6PL8tRJ5S_8Ue17Fs_n585KgABOgRNt0FAaZl
 0000:22E0       _D6PL8tRJ5S_8Ue18__T3GlcTiTAAiTAAiZ3GlcFiAAiAAiZAAi
 0000:20A4       _D6PL8tRJ5S_8Ue19M32Uvhn0KYWnMnWJvoh13Y7ip4JjGCVx91MFZv
 0000:20EC       _D6PL8tRJ5S_8Ue19M32Uvhn0KYWnMnWJvoh4J4wdMFZv
 0000:2068       _D6PL8tRJ5S_8Ue19M32Uvhn0KYWnMnWJvoh5_ctorMFZC6PL8tRJ5S_8Ue19M32Uvhn0KYWnMnWJvoh
 0000:20B8       _D6PL8tRJ5S_8Ue19M32Uvhn0KYWnMnWJvoh6Cw4UF9MFZv
 0000:2074       _D6PL8tRJ5S_8Ue19M32Uvhn0KYWnMnWJvoh6FQeo7LMFAaZPb
 04CC:2034       _D6PL8tRJ5S_8Ue19M32Uvhn0KYWnMnWJvoh6__initZ
 04CC:20C0       _D6PL8tRJ5S_8Ue19M32Uvhn0KYWnMnWJvoh6__vtblZ
 0000:20CC       _D6PL8tRJ5S_8Ue19M32Uvhn0KYWnMnWJvoh6lengthMFZk
 04CC:2070       _D6PL8tRJ5S_8Ue19M32Uvhn0KYWnMnWJvoh7__ClassZ
 0000:1E54       _D6PL8tRJ5S_8Ue19S9aTbJWisp2710zY_KjFAaZAa
 0000:1FEC       _D6PL8tRJ5S_8Ue20SNpMTYk0F_65I7CqeGh5FiZAa
 0000:222C       _D6PL8tRJ5S_8Ue3FK4FZAa
 0000:21D8       _D6PL8tRJ5S_8Ue3RR1FAaZAa
 0000:216C       _D6PL8tRJ5S_8Ue3RR1FZAa
 0000:220C       _D6PL8tRJ5S_8Ue4UzkTFZAa
 0000:2288       _D6PL8tRJ5S_8Ue5J4WvWFZAa
 0ABB:00A0       _D6PL8tRJ5S_8Ue5XpogNk
 0000:1CC8       _D6PL8tRJ5S_8Ue6C7fip1FtZt
 0000:1CD8       _D6PL8tRJ5S_8Ue6RdSPsyFkZk
 0000:1CEC       _D6PL8tRJ5S_8Ue6RdSPsyFtZt
 0000:1D8C       _D6PL8tRJ5S_8Ue6T4_1EZFAaZk
 0000:1DA4       _D6PL8tRJ5S_8Ue6TMzE9sFAaZAa
 0000:1C34       _D6PL8tRJ5S_8Ue7AkfxrF7FZAa
 0000:1D00       _D6PL8tRJ5S_8Ue7DgIaPnSFZk
 0000:2294       _D6PL8tRJ5S_8Ue7P7AyEC2FAvZAa
 0000:2118       _D6PL8tRJ5S_8Ue7Qe3kUCqFbAaZv
 0000:1CBC       _D6PL8tRJ5S_8Ue7UyPI1V5FkZk
 0000:1CA8       _D6PL8tRJ5S_8Ue7UyPI1V5FtZt
 0000:1D20       _D6PL8tRJ5S_8Ue7Ycxj99yFZk
 0000:21EC       _D6PL8tRJ5S_8Ue8Gv2xPIsMFZAa
 0000:1EB8       _D6PL8tRJ5S_8Ue8JL09pYh8FZv
 0000:1BCC       _D6PL8tRJ5S_8Ue8NcsqCN8kFAaAaZb
 0000:1EC0       _D6PL8tRJ5S_8Ue8WnRCThIKFZl
 0000:1BAC       _D6PL8tRJ5S_8Ue8XhDsFRRvFAaAaZb
 0000:1DCC       _D6PL8tRJ5S_8Ue9HXl1D8GCrFAaZAa
 0000:1E2C       _D6PL8tRJ5S_8Ue9HXl1D8GCrFAaZAa16__foreachbody184MFKwZi
 0000:1DB4       _D6PL8tRJ5S_8Ue9QMUbSLnI5FZAa
 0000:2060       _D6PL8tRJ5S_8Ue9UYCSJGV5zFZv
 0000:1D4C       _D6PL8tRJ5S_8Ue9ZfpKsTqIkFAhZAh
 04CC:2028       _D6PL8tRJ5S_8Ue9__enum1956__initZ
 04CC:2030       _D6PL8tRJ5S_8Ue9__enum1966__initZ
 0000:11FC       _D6PL8tRJ6VQL0re10RBvP6Qph6kFDFZvlZv
 0000:1258       _D6PL8tRJ6VQL0re10RBvP6Qph6kFDFZvlZv12__dgliteral4MFC6PL8tRJ6VQL0re5IY1n6C6PL8tRJ6VQL0re9U0813Zf5UDFZvZv
 04CC:1920       _D6PL8tRJ6VQL0re12__ModuleInfoZ
 0000:11C4       _D6PL8tRJ6VQL0re12_staticCtor2FZv
 04CC:1670       _D6PL8tRJ6VQL0re15Q1mAkz4hVW7hZN111__InterfaceZ
 0000:117C       _D6PL8tRJ6VQL0re15ZW8ZKNwrOMTMoUg3KMNMFZv
 0000:113C       _D6PL8tRJ6VQL0re15ZW8ZKNwrOMTMoUg4KoU2MFZb
 0000:1124       _D6PL8tRJ6VQL0re15ZW8ZKNwrOMTMoUg5_ctorMFZC6PL8tRJ6VQL0re15ZW8ZKNwrOMTMoUg
 0000:1130       _D6PL8tRJ6VQL0re15ZW8ZKNwrOMTMoUg5_dtorMFZv
 0000:1190       _D6PL8tRJ6VQL0re15ZW8ZKNwrOMTMoUg6Cw4UF9MFZv
 04CC:15B0       _D6PL8tRJ6VQL0re15ZW8ZKNwrOMTMoUg6__initZ
 04CC:1630       _D6PL8tRJ6VQL0re15ZW8ZKNwrOMTMoUg6__vtblZ
 0000:11A4       _D6PL8tRJ6VQL0re15ZW8ZKNwrOMTMoUg7XgnZ9_SMFZb
 04CC:15E0       _D6PL8tRJ6VQL0re15ZW8ZKNwrOMTMoUg7__ClassZ
 04CC:13F0       _D6PL8tRJ6VQL0re26WpK8cDpIQpKTezFdYWSL8cbV4Bl
 0000:104C       _D6PL8tRJ6VQL0re5IY1n63KMNMFC6PL8tRJ6VQL0re9U0813Zf5UZv
 0000:0FA4       _D6PL8tRJ6VQL0re5IY1n63KMNMFZv
 0000:0FD0       _D6PL8tRJ6VQL0re5IY1n64KoU2MFZv
 0000:0FB8       _D6PL8tRJ6VQL0re5IY1n65_ctorMFZC6PL8tRJ6VQL0re5IY1n6
 0000:0FC4       _D6PL8tRJ6VQL0re5IY1n65_dtorMFZv
 0000:1074       _D6PL8tRJ6VQL0re5IY1n66Cw4UF9MFZv
 04CC:1450       _D6PL8tRJ6VQL0re5IY1n66__initZ
 04CC:14D0       _D6PL8tRJ6VQL0re5IY1n66__vtblZ
 0000:1060       _D6PL8tRJ6VQL0re5IY1n67NM8PTSHMFZv
 04CC:1480       _D6PL8tRJ6VQL0re5IY1n67__ClassZ
 0000:1088       _D6PL8tRJ6VQL0re5IY1n69SeHH1IjztMFZl
 0ABB:0088       _D6PL8tRJ6VQL0re7A3br8kL6__initZ
 0000:11CC       _D6PL8tRJ6VQL0re7A3br8kL6opCallMFZb
 0ABB:0084       _D6PL8tRJ6VQL0re7QOukedyC6PL8tRJ6VQL0re15ZW8ZKNwrOMTMoUg
 04CC:16F0       _D6PL8tRJ6VQL0re8Yuel3uMc6__initZ
 04CC:1760       _D6PL8tRJ6VQL0re8Yuel3uMc6__vtblZ
 0000:1264       _D6PL8tRJ6VQL0re8Yuel3uMc6opCallMFZb
 04CC:1710       _D6PL8tRJ6VQL0re8Yuel3uMc7__ClassZ
 0ABB:0080       _D6PL8tRJ6VQL0re9NqEy3jzyaC6PL8tRJ6VQL0re5IY1n6
 0000:10B8       _D6PL8tRJ6VQL0re9U0813Zf5U5_ctorMFlZC6PL8tRJ6VQL0re9U0813Zf5U
 0000:10C8       _D6PL8tRJ6VQL0re9U0813Zf5U5_dtorMFZv
 04CC:14F0       _D6PL8tRJ6VQL0re9U0813Zf5U6__initZ
 04CC:1580       _D6PL8tRJ6VQL0re9U0813Zf5U6__vtblZ
 04CC:1530       _D6PL8tRJ6VQL0re9U0813Zf5U7__ClassZ
 0000:10F4       _D6PL8tRJ6VQL0re9U0813Zf5U8FoFwFPcUMFZl
 0000:1110       _D6PL8tRJ6VQL0re9U0813Zf5U8Lm1wGRyOMFZv
 0000:10D4       _D6PL8tRJ6VQL0re9U0813Zf5U9G7k2s7rgdMFZb
 0000:469C       _D6PL8tRJ7W6oQinE10D4sXFrbfoO3PnmMFAaZC6PL8tRJ7W6oQinE6GPnbOC
 0000:46C8       _D6PL8tRJ7W6oQinE10D4sXFrbfoO4VeuWMFZv
 0000:46B4       _D6PL8tRJ7W6oQinE10D4sXFrbfoO5WdoHJMFZv
 0000:467C       _D6PL8tRJ7W6oQinE10D4sXFrbfoO5_ctorMFZC6PL8tRJ7W6oQinE10D4sXFrbfoO
 0000:46D4       _D6PL8tRJ7W6oQinE10D4sXFrbfoO6XsuAYiMFZv
 04CC:50F0       _D6PL8tRJ7W6oQinE10D4sXFrbfoO6__initZ
 04CC:5180       _D6PL8tRJ7W6oQinE10D4sXFrbfoO6__vtblZ
 04CC:5130       _D6PL8tRJ7W6oQinE10D4sXFrbfoO7__ClassZ
 0000:44D0       _D6PL8tRJ7W6oQinE10RSPtdHssoiFlZAa
 0000:4754       _D6PL8tRJ7W6oQinE11IWnw3IBZKxG3PnmMFAaZC6PL8tRJ7W6oQinE6GPnbOC
 0000:4780       _D6PL8tRJ7W6oQinE11IWnw3IBZKxG5WdoHJMFZv
 0000:4714       _D6PL8tRJ7W6oQinE11IWnw3IBZKxG5_ctorMFZC6PL8tRJ7W6oQinE11IWnw3IBZKxG
 0000:476C       _D6PL8tRJ7W6oQinE11IWnw3IBZKxG6NJtr_HMFAaZv
 04CC:5260       _D6PL8tRJ7W6oQinE11IWnw3IBZKxG6__initZ
 04CC:52F0       _D6PL8tRJ7W6oQinE11IWnw3IBZKxG6__vtblZ
 04CC:52A0       _D6PL8tRJ7W6oQinE11IWnw3IBZKxG7__ClassZ
 04CC:5430       _D6PL8tRJ7W6oQinE12__ModuleInfoZ
 0000:45B4       _D6PL8tRJ7W6oQinE13HuhKpbLkFJjhg3PnmMFAaZC6PL8tRJ7W6oQinE6GPnbOC
 0000:45CC       _D6PL8tRJ7W6oQinE13HuhKpbLkFJjhg4VeuWMFZv
 0000:4598       _D6PL8tRJ7W6oQinE13HuhKpbLkFJjhg5_ctorMFAabZC6PL8tRJ7W6oQinE13HuhKpbLkFJjhg
 0000:4670       _D6PL8tRJ7W6oQinE13HuhKpbLkFJjhg6XsuAYiMFZv
 04CC:5030       _D6PL8tRJ7W6oQinE13HuhKpbLkFJjhg6__initZ
 04CC:50C0       _D6PL8tRJ7W6oQinE13HuhKpbLkFJjhg6__vtblZ
 04CC:5070       _D6PL8tRJ7W6oQinE13HuhKpbLkFJjhg7__ClassZ
 0000:46FC       _D6PL8tRJ7W6oQinE13ZzoJiJ9vuPlip3PnmMFAaZC6PL8tRJ7W6oQinE6GPnbOC
 0000:46E0       _D6PL8tRJ7W6oQinE13ZzoJiJ9vuPlip5_ctorMFZC6PL8tRJ7W6oQinE13ZzoJiJ9vuPlip
 04CC:51B0       _D6PL8tRJ7W6oQinE13ZzoJiJ9vuPlip6__initZ
 04CC:5230       _D6PL8tRJ7W6oQinE13ZzoJiJ9vuPlip6__vtblZ
 04CC:51E0       _D6PL8tRJ7W6oQinE13ZzoJiJ9vuPlip7__ClassZ
 0ABB:0140       _D6PL8tRJ7W6oQinE16Ota9vtPNM3hMiywbi
 0000:4528       _D6PL8tRJ7W6oQinE18LBiTUnQHtcuOANhvhjFZl
 0000:4794       _D6PL8tRJ7W6oQinE20Sjf10OGE3hXfL57LEzgc5_ctorMFZC6PL8tRJ7W6oQinE20Sjf10OGE3hXfL57LEzgc
 04CC:5320       _D6PL8tRJ7W6oQinE20Sjf10OGE3hXfL57LEzgc6__initZ
 04CC:53B0       _D6PL8tRJ7W6oQinE20Sjf10OGE3hXfL57LEzgc6__vtblZ
 04CC:5360       _D6PL8tRJ7W6oQinE20Sjf10OGE3hXfL57LEzgc7__ClassZ
 0000:4580       _D6PL8tRJ7W6oQinE6GPnbOC4VeuWMFZv
 0000:456C       _D6PL8tRJ7W6oQinE6GPnbOC5WdoHJMFZv
 0000:4548       _D6PL8tRJ7W6oQinE6GPnbOC5_ctorMFAaZC6PL8tRJ7W6oQinE6GPnbOC
 0000:4558       _D6PL8tRJ7W6oQinE6GPnbOC6NJtr_HMFAaZv
 0000:458C       _D6PL8tRJ7W6oQinE6GPnbOC6XsuAYiMFZv
 04CC:4F40       _D6PL8tRJ7W6oQinE6GPnbOC6__initZ
 04CC:4FC0       _D6PL8tRJ7W6oQinE6GPnbOC6__vtblZ
 04CC:4F70       _D6PL8tRJ7W6oQinE6GPnbOC7__ClassZ
 04CC:0C54       _D6PL8tRJ8YYSbXxao10YRtIvqycaXi
 0ABB:0074       _D6PL8tRJ8YYSbXxao12I54V2vA5DDLGi
 0000:0C70       _D6PL8tRJ8YYSbXxao12SOq8rVwHOGQR10EggRRDNm8vMFAaE6PL8tRJ8YYSbXxao14CIqwuuHVVTAYGZZv
 0000:0CAC       _D6PL8tRJ8YYSbXxao12SOq8rVwHOGQR10H_I4_i50bnMFZv
 0000:0C0C       _D6PL8tRJ8YYSbXxao12SOq8rVwHOGQR10N4hP6hkWYcMFZv
 0000:0C18       _D6PL8tRJ8YYSbXxao12SOq8rVwHOGQR10XvZqeglqBAMFZv
 0000:0D1C       _D6PL8tRJ8YYSbXxao12SOq8rVwHOGQR11EeSSTCZ9AWSMFZv
 0000:0D30       _D6PL8tRJ8YYSbXxao12SOq8rVwHOGQR11HSI4bignzRhMFZb
 0000:0C30       _D6PL8tRJ8YYSbXxao12SOq8rVwHOGQR11L8muxn044r7MFZv
 0000:0CC0       _D6PL8tRJ8YYSbXxao12SOq8rVwHOGQR12H8Iwv5mTFgsFMFZb
 0000:0D08       _D6PL8tRJ8YYSbXxao12SOq8rVwHOGQR14YZUCFxViFCGgoYMFZv
 0000:0CF4       _D6PL8tRJ8YYSbXxao12SOq8rVwHOGQR17JfReq6YRMFVQqWSgkMFZv
 0000:0CE0       _D6PL8tRJ8YYSbXxao12SOq8rVwHOGQR17NXVVt7K8tr5M27VuYMFZv
 04CC:0E50       _D6PL8tRJ8YYSbXxao12SOq8rVwHOGQR23AxJQMtdPyX9sqIq9XqunMW0G30a
 0000:0C84       _D6PL8tRJ8YYSbXxao12SOq8rVwHOGQR4UL0qMFAvZv
 0000:0C98       _D6PL8tRJ8YYSbXxao12SOq8rVwHOGQR5TxOdGMFZv
 0000:0BE0       _D6PL8tRJ8YYSbXxao12SOq8rVwHOGQR5_ctorMFC6PL8tRJ10OmlO6wmTZ26YaxccjZC6PL8tRJ8YYSbXxao12SOq8rVwHOGQR
 0000:0C3C       _D6PL8tRJ8YYSbXxao12SOq8rVwHOGQR5_ctorMFZC6PL8tRJ8YYSbXxao12SOq8rVwHOGQR
 0000:0C50       _D6PL8tRJ8YYSbXxao12SOq8rVwHOGQR5_dtorMFZv
 04CC:0E70       _D6PL8tRJ8YYSbXxao12SOq8rVwHOGQR6__initZ
 04CC:0F00       _D6PL8tRJ8YYSbXxao12SOq8rVwHOGQR6__vtblZ
 0000:0C24       _D6PL8tRJ8YYSbXxao12SOq8rVwHOGQR7DaqXfWlMFAaZv
 0000:0C5C       _D6PL8tRJ8YYSbXxao12SOq8rVwHOGQR7QXBe2HtMFZv
 04CC:0EB0       _D6PL8tRJ8YYSbXxao12SOq8rVwHOGQR7__ClassZ
 0000:0BF8       _D6PL8tRJ8YYSbXxao12SOq8rVwHOGQR9JLzVQCvjVMFZS6PL8tRJ8YYSbXxao9BJfKKwjMb
 04CC:1100       _D6PL8tRJ8YYSbXxao12__ModuleInfoZ
 0000:0DDC       _D6PL8tRJ8YYSbXxao12_staticCtor1FZv
 0000:09E8       _D6PL8tRJ8YYSbXxao13JFI8ULUOXLUwP10B09VbHYaTUMFZv
 0000:0A50       _D6PL8tRJ8YYSbXxao13JFI8ULUOXLUwP4JzZoMFZv
 0000:0A64       _D6PL8tRJ8YYSbXxao13JFI8ULUOXLUwP4JzZoMFZv7SpIslXiFZl
 0000:0A38       _D6PL8tRJ8YYSbXxao13JFI8ULUOXLUwP4sizeMFZi
 0000:0A20       _D6PL8tRJ8YYSbXxao13JFI8ULUOXLUwP5_ctorMFZC6PL8tRJ8YYSbXxao13JFI8ULUOXLUwP
 0000:0A2C       _D6PL8tRJ8YYSbXxao13JFI8ULUOXLUwP5_dtorMFZv
 04CC:0C60       _D6PL8tRJ8YYSbXxao13JFI8ULUOXLUwP6__initZ
 04CC:0CE0       _D6PL8tRJ8YYSbXxao13JFI8ULUOXLUwP6__vtblZ
 04CC:0C90       _D6PL8tRJ8YYSbXxao13JFI8ULUOXLUwP7__ClassZ
 0000:09DC       _D6PL8tRJ8YYSbXxao13JFI8ULUOXLUwP8GrLGy3OOMFZv
 0ABB:0070       _D6PL8tRJ8YYSbXxao13MvpbcBn39p7yc6__initZ
 0000:0AD0       _D6PL8tRJ8YYSbXxao13Sj9asAviCk8sA10N4hP6hkWYcMFZv
 0000:0ADC       _D6PL8tRJ8YYSbXxao13Sj9asAviCk8sA10XvZqeglqBAMFZv
 0000:0BCC       _D6PL8tRJ8YYSbXxao13Sj9asAviCk8sA12I4aSQV6vMHMnMFZv
 0000:0B0C       _D6PL8tRJ8YYSbXxao13Sj9asAviCk8sA13Cqxk2uLAIns9xMFZAa
 0000:0AF4       _D6PL8tRJ8YYSbXxao13Sj9asAviCk8sA5_ctorMFZC6PL8tRJ8YYSbXxao13Sj9asAviCk8sA
 0000:0B00       _D6PL8tRJ8YYSbXxao13Sj9asAviCk8sA5_dtorMFZv
 0000:0AAC       _D6PL8tRJ8YYSbXxao13Sj9asAviCk8sA6YHv8nOMFZC6PL8tRJ10OmlO6wmTZ26Yaxccj
 04CC:0D90       _D6PL8tRJ8YYSbXxao13Sj9asAviCk8sA6__initZ
 04CC:0E20       _D6PL8tRJ8YYSbXxao13Sj9asAviCk8sA6__vtblZ
 0000:0AE8       _D6PL8tRJ8YYSbXxao13Sj9asAviCk8sA7DaqXfWlMFAaZv
 04CC:0DD0       _D6PL8tRJ8YYSbXxao13Sj9asAviCk8sA7__ClassZ
 0000:0BAC       _D6PL8tRJ8YYSbXxao13Sj9asAviCk8sA8FQS8MYEYMFZAa
 0000:0ABC       _D6PL8tRJ8YYSbXxao13Sj9asAviCk8sA9JLzVQCvjVMFZS6PL8tRJ8YYSbXxao9BJfKKwjMb
 0ABB:0078       _D6PL8tRJ8YYSbXxao13Y7XqSCYcXTMegC6PL8tRJ8YYSbXxao13JFI8ULUOXLUwP
 04CC:0C58       _D6PL8tRJ8YYSbXxao18CahECVPLqMjAm7_IQgi
 0000:0DB4       _D6PL8tRJ8YYSbXxao18S6OzYzbrD9Ac2ODNXe10EggRRDNm8vMFAaE6PL8tRJ8YYSbXxao14CIqwuuHVVTAYGZZv
 0000:0D48       _D6PL8tRJ8YYSbXxao18S6OzYzbrD9Ac2ODNXe10SqZ10h9QCiMFZv
 0000:0D68       _D6PL8tRJ8YYSbXxao18S6OzYzbrD9Ac2ODNXe17JfReq6YRMFVQqWSgkMFZv
 0000:0D54       _D6PL8tRJ8YYSbXxao18S6OzYzbrD9Ac2ODNXe17NXVVt7K8tr5M27VuYMFZv
 0000:0DC8       _D6PL8tRJ8YYSbXxao18S6OzYzbrD9Ac2ODNXe4UL0qMFZv
 0000:0D90       _D6PL8tRJ8YYSbXxao18S6OzYzbrD9Ac2ODNXe5_ctorMFC6PL8tRJ10OmlO6wmTZ26YaxccjZC6PL8tRJ8YYSbXxao18S6OzYzbrD9Ac2ODNXe
 0000:0D7C       _D6PL8tRJ8YYSbXxao18S6OzYzbrD9Ac2ODNXe5_ctorMFZC6PL8tRJ8YYSbXxao18S6OzYzbrD9Ac2ODNXe
 0000:0DA8       _D6PL8tRJ8YYSbXxao18S6OzYzbrD9Ac2ODNXe5_dtorMFZv
 04CC:0F40       _D6PL8tRJ8YYSbXxao18S6OzYzbrD9Ac2ODNXe6__initZ
 04CC:0FE0       _D6PL8tRJ8YYSbXxao18S6OzYzbrD9Ac2ODNXe6__vtblZ
 04CC:0F90       _D6PL8tRJ8YYSbXxao18S6OzYzbrD9Ac2ODNXe7__ClassZ
 0000:0F64       _D6PL8tRJ8YYSbXxao57__T19W05uXgmxIE2FYC1XnP5TC6PL8tRJ8YYSbXxao12SOq8rVwHOGQRZ19W05uXgmxIE2FYC1XnP55WdoHJMFZv
 0000:0E74       _D6PL8tRJ8YYSbXxao57__T19W05uXgmxIE2FYC1XnP5TC6PL8tRJ8YYSbXxao12SOq8rVwHOGQRZ19W05uXgmxIE2FYC1XnP55_dtorMFZv
 0000:0E80       _D6PL8tRJ8YYSbXxao57__T19W05uXgmxIE2FYC1XnP5TC6PL8tRJ8YYSbXxao12SOq8rVwHOGQRZ19W05uXgmxIE2FYC1XnP56MTQOz5MFtAaZt
 04CC:1350       _D6PL8tRJ8YYSbXxao57__T19W05uXgmxIE2FYC1XnP5TC6PL8tRJ8YYSbXxao12SOq8rVwHOGQRZ19W05uXgmxIE2FYC1XnP56__initZ
 04CC:13D0       _D6PL8tRJ8YYSbXxao57__T19W05uXgmxIE2FYC1XnP5TC6PL8tRJ8YYSbXxao12SOq8rVwHOGQRZ19W05uXgmxIE2FYC1XnP56__vtblZ
 04CC:1380       _D6PL8tRJ8YYSbXxao57__T19W05uXgmxIE2FYC1XnP5TC6PL8tRJ8YYSbXxao12SOq8rVwHOGQRZ19W05uXgmxIE2FYC1XnP57__ClassZ
 0000:0E18       _D6PL8tRJ8YYSbXxao57__T19W05uXgmxIE2FYC1XnP5TC6PL8tRJ8YYSbXxao12SOq8rVwHOGQRZ19W05uXgmxIE2FYC1XnP58E05eODO410N4hP6hkWYcMFZv
 0000:0E2C       _D6PL8tRJ8YYSbXxao57__T19W05uXgmxIE2FYC1XnP5TC6PL8tRJ8YYSbXxao12SOq8rVwHOGQRZ19W05uXgmxIE2FYC1XnP58E05eODO410XvZqeglqBAMFZv
 0000:0E54       _D6PL8tRJ8YYSbXxao57__T19W05uXgmxIE2FYC1XnP5TC6PL8tRJ8YYSbXxao12SOq8rVwHOGQRZ19W05uXgmxIE2FYC1XnP58E05eODO413RPFDPLvt8uAFoMFZv
 04CC:1290       _D6PL8tRJ8YYSbXxao57__T19W05uXgmxIE2FYC1XnP5TC6PL8tRJ8YYSbXxao12SOq8rVwHOGQRZ19W05uXgmxIE2FYC1XnP58E05eODO46__initZ
 04CC:1310       _D6PL8tRJ8YYSbXxao57__T19W05uXgmxIE2FYC1XnP5TC6PL8tRJ8YYSbXxao12SOq8rVwHOGQRZ19W05uXgmxIE2FYC1XnP58E05eODO46__vtblZ
 0000:0E40       _D6PL8tRJ8YYSbXxao57__T19W05uXgmxIE2FYC1XnP5TC6PL8tRJ8YYSbXxao12SOq8rVwHOGQRZ19W05uXgmxIE2FYC1XnP58E05eODO47DaqXfWlMFAaZv
 04CC:12C0       _D6PL8tRJ8YYSbXxao57__T19W05uXgmxIE2FYC1XnP5TC6PL8tRJ8YYSbXxao12SOq8rVwHOGQRZ19W05uXgmxIE2FYC1XnP58E05eODO47__ClassZ
 0000:0E68       _D6PL8tRJ8YYSbXxao57__T19W05uXgmxIE2FYC1XnP5TCÄê¨12SOq8rVwHOGQRZÄï∂5_ctorMFZÄëæÄ–Í
 0000:0DE4       _D6PL8tRJ8YYSbXxao57__T19W05uXgmxIE2FYC1XnP5TCÄê¨12SOq8rVwHOGQRZÄï∂8E05eODO45_ctorMFÄà∆10OmlO6wmTZ26YaxccjZÄë‚ÅŸé
 0000:0DFC       _D6PL8tRJ8YYSbXxao57__T19W05uXgmxIE2FYC1XnP5TCÄê¨12SOq8rVwHOGQRZÄï∂8E05eODO49JLzVQCvjVMFZSÄêÀ9BJfKKwjMb
 0ABB:0071       _D6PL8tRJ8YYSbXxao9BJfKKwjMb6__initZ
 0ABB:007C       _D6PL8tRJ8YYSbXxao9Sz_6UL2CwC6PL8tRJ6VQL0re5IY1n6
 04CC:0C4C       _D6PL8tRJ8YYSbXxao9__enum1936__initZ
 04CC:0C50       _D6PL8tRJ8YYSbXxao9__enum1946__initZ
 04CC:5D80       _D6PL8tRJ9PWUmAyceS12__ModuleInfoZ
 0ABB:01B0       _D6PL8tRJ9PWUmAyceS13QaZn5o1xJFQiL6__initZ
 04CC:1DF0       _D76TypeInfo_S3std4bind49__T5TupleTS3std4bind14__T6DynArgVi1Z6DynArgTDFZvZ5Tuple6__initZ
 0ABB:0198       _D7WrsbrqT10GlCgJGaHDjC3std6stream4File
 0ABB:0160       _D7WrsbrqT11NxtpRDGDnRI6__initZ
 0ABB:0188       _D7WrsbrqT11TC3DqEGjsBBHAaC3std6stream4File
 0000:4B58       _D7WrsbrqT12YpO6yeDgt8PUFAaZAC7WrsbrqT6NCMp4E
 04CC:5680       _D7WrsbrqT12__ModuleInfoZ
 04CC:5640       _D7WrsbrqT13CVLxf3p_Q809zi
 0ABB:01A4       _D7WrsbrqT13Q3LCZ_2zQGiCa6__initZ
 0ABB:0190       _D7WrsbrqT14B3oepn1pP2G8Vu6__initZ
 0ABB:0150       _D7WrsbrqT14BP8X5RPsfAmCkR6__initZ
 0000:4C10       _D7WrsbrqT14GOWwrd_SpWHP3_FAaC7WrsbrqT6NCMp4EkS7WrsbrqT14PGBeG2OG5VWVOHZAS7WrsbrqT13Q3LCZ_2zQGiCa
 0ABB:01A5       _D7WrsbrqT14PGBeG2OG5VWVOH6__initZ
 0000:49B4       _D7WrsbrqT14POmzsmGqvYSTt2FAaZk
 0ABB:0158       _D7WrsbrqT16AP9WRE55rwuOLv5d6__initZ
 0000:4AA0       _D7WrsbrqT20OSNxaXZQqCSosHQpHzRqFZAS7WrsbrqT14B3oepn1pP2G8Vu
 0000:4C90       _D7WrsbrqT27__T18AyCOXnSHy1A4YqTKscVb0ZÄîòFCÄàª6NCMp4EÄêêÄêêAAakSÄàî14PGBeG2OG5VWVOHZAÄäõ3Q3LCZ_2zQGiCa
 0000:4830       _D7WrsbrqT4CnAz10KRyCzsRouUMFZk
 0000:47F8       _D7WrsbrqT4CnAz14Aj5qvjtu8vSfMQMFE7WrsbrqT4CnAz5Jj_hYZk
 0000:47A8       _D7WrsbrqT4CnAz14F2Kt03VcQgbmgZMFE7WrsbrqT4CnAz5Jj_hYZk
 0000:48FC       _D7WrsbrqT4CnAz4MHEsMFZAh
 0000:4868       _D7WrsbrqT4CnAz4sizeMFZk
 0ABB:0170       _D7WrsbrqT4CnAz6__initZ
 0000:4934       _D7WrsbrqT4CnAz6opCallFPS7WrsbrqT14BP8X5RPsfAmCkRAaZPS7WrsbrqT4CnAz
 0000:48A4       _D7WrsbrqT4CnAz8HzFkxqrIMFE7WrsbrqT4CnAz5Jj_hYZAv
 0000:4AE8       _D7WrsbrqT6NCMp4E3KMNMFAhZv
 04CC:5590       _D7WrsbrqT6NCMp4E6__initZ
 04CC:5600       _D7WrsbrqT6NCMp4E6__vtblZ
 04CC:55B0       _D7WrsbrqT6NCMp4E7__ClassZ
 04CC:558C       _D7WrsbrqT6NCMp4E9__enum2096__initZ
 0ABB:0168       _D7WrsbrqT6ST3h976__initZ
 0000:4AD8       _D7WrsbrqT7DgIaPnSFAaAhZAh
 0000:4998       _D7WrsbrqT7OsTt0cOFPS7WrsbrqT4CnAzZm
 0000:4CA4       _D7WrsbrqT7__arrayZ
 0000:4980       _D7WrsbrqT8BlyrKiSeFmZPS7WrsbrqT4CnAz
 0ABB:0178       _D7WrsbrqT8CfQ5_zgCC3std6stream4File
 0000:4A84       _D7WrsbrqT9DA0KJZz3TFAaAPS7WrsbrqT4CnAzZk
 0000:4A58       _D7WrsbrqT9DA0KJZz3TFAaAS7WrsbrqT16AP9WRE55rwuOLv5dZk
 0000:4A08       _D7WrsbrqT9DA0KJZz3TFAaKS7WrsbrqT6ST3h97Zk
 0000:4B1C       _D7WrsbrqT9FmlH6gyuqFAaZC7WrsbrqT6NCMp4E
 04CC:1D90       _D85TypeInfo_S3std4bind58__T5TupleTC6PL8tRJ6VQL0re5IY1n6TC6PL8tRJ6VQL0re9U0813Zf5UZ5Tuple6__initZ
 0000:026C       _D8mainfile12KjIE8qFD6_J_10FNR6UrjEOSMFZi
 0000:01D4       _D8mainfile12KjIE8qFD6_J_11EG4mcjDU8udMFZv
 0000:01E8       _D8mainfile12KjIE8qFD6_J_14RoHuCBCrUVlFz9MFZv
 0000:0208       _D8mainfile12KjIE8qFD6_J_16AaS9TYEKX4J_yh3RMFZv
 0000:0238       _D8mainfile12KjIE8qFD6_J_16AaS9TYEKX4J_yh3RMFZv13GWDLVqAEVR0u4MFKS5Qdudr13AeGY1BFD7I0sTZm
 0000:0260       _D8mainfile12KjIE8qFD6_J_16AaS9TYEKX4J_yh3RMFZv8NGvp5qIfMFZv
 04CC:02B0       _D8mainfile12KjIE8qFD6_J_6__initZ
 04CC:0330       _D8mainfile12KjIE8qFD6_J_6__vtblZ
 04CC:02E0       _D8mainfile12KjIE8qFD6_J_7__ClassZ
 04CC:02AC       _D8mainfile12KjIE8qFD6_J_9__enum1926__initZ
 0ABB:0008       _D8mainfile12SWhnfUrJKQ7n6__initZ
 0000:0124       _D8mainfile12SWhnfUrJKQ7n6opCallFPS7WrsbrqT4CnAzbZS8mainfile12SWhnfUrJKQ7n
 04CC:05C0       _D8mainfile12__ModuleInfoZ
 0ABB:0000       _D8mainfile14JIlhMB3pekQ94jC8mainfile14JhcGTAWNYpsmH1
 0000:0014       _D8mainfile14JhcGTAWNYpsmH113JkqHMLwsZGazf10S0ubOBkmqGMFZv
 0000:0000       _D8mainfile14JhcGTAWNYpsmH113JkqHMLwsZGazf5Phri3MFZv
 04CC:0000       _D8mainfile14JhcGTAWNYpsmH113JkqHMLwsZGazf6__initZ
 04CC:0090       _D8mainfile14JhcGTAWNYpsmH113JkqHMLwsZGazf6__vtblZ
 04CC:0040       _D8mainfile14JhcGTAWNYpsmH113JkqHMLwsZGazf7__ClassZ
 0000:0028       _D8mainfile14JhcGTAWNYpsmH14KoU2MFZv
 0000:003C       _D8mainfile14JhcGTAWNYpsmH15TxOdGMFZb
 04CC:00B0       _D8mainfile14JhcGTAWNYpsmH16__initZ
 04CC:0130       _D8mainfile14JhcGTAWNYpsmH16__vtblZ
 04CC:00E0       _D8mainfile14JhcGTAWNYpsmH17__ClassZ
 0000:0080       _D8mainfile14JhcGTAWNYpsmH18NWhwAz6NMFAaZb
 0000:00B4       _D8mainfile14JhcGTAWNYpsmH18Qb1p7zsJMFKAAaZv
 0000:00E4       _D8mainfile14JhcGTAWNYpsmH18Qb1p7zsJMFKAAaZv16__foreachbody179MFKAaKbZi
 0000:0160       _D8mainfile15V3C8P_3Hb77mFyO10S0ubOBkmqGMFAaZv
 0000:014C       _D8mainfile15V3C8P_3Hb77mFyO3TMhMFZv
 0000:0140       _D8mainfile15V3C8P_3Hb77mFyO5_ctorMFZC8mainfile15V3C8P_3Hb77mFyO
 04CC:01F0       _D8mainfile15V3C8P_3Hb77mFyO6__initZ
 04CC:0270       _D8mainfile15V3C8P_3Hb77mFyO6__vtblZ
 04CC:0220       _D8mainfile15V3C8P_3Hb77mFyO7__ClassZ
 04CC:0170       _D8mainfile15V3C8P_3Hb77mFyO9__enum1916__initZ
 04CC:0490       _D8mainfile3Fzo6__initZ
 04CC:0500       _D8mainfile3Fzo6__vtblZ
 04CC:04B0       _D8mainfile3Fzo7__ClassZ
 0000:0648       _D8mainfile3Fzo9YhNRZAzZrMFC6PL8tRJ4SCve6V8eQAW11LSCyILakhEkC6PL8tRJ8YYSbXxao12SOq8rVwHOGQRZC6PL00104BDA0FD3854521F29580CDF103E5
 0000:05F4       _D8mainfile3Fzo9YhNRZAzZrMFC6PL8tRJ4SCve6V8eQAW11LSCyILakhEkC6PL8tRJ8YYSbXxao12SOq8rVwHOGQRZC6PL270665373D411B209DF1288C129604D1
 0000:05E0       _D8mainfile3Fzo9YhNRZAzZrMFC6PL8tRJ4SCve6V8eQAW11LSCyILakhEkC6PL8tRJ8YYSbXxao12SOq8rVwHOGQRZC6PL375E73B35FF7F970E855ACA57A7D1A4C
 0ABB:0020       _D8mainfile3Fzo9YhNRZAzZrMFC6PL8tRJ4SCve6V8eQAW11LSCyILakhEkC6PL8tRJ8YYSbXxao12SOq8rVwHOGQRZC6PL7DFB168A6F7041A903FF37A5A826B919
 0ABB:0030       _D8mainfile3Fzo9YhNRZAzZrMFC6PL8tRJ4SCve6V8eQAW11LSCyILakhEkC6PL8tRJ8YYSbXxao12SOq8rVwHOGQRZC6PL8542991334CFF5B0E75BB32AEF801B12
 0000:02A8       _D8mainfile3Fzo9YhNRZAzZrMFC6PL8tRJ4SCve6V8eQAW11LSCyILakhEkC6PL8tRJ8YYSbXxao12SOq8rVwHOGQRZC6PL8tRJ4SCve6V8eQAW12Nd4PsjPBdmpz
 0000:05A8       _D8mainfile3Fzo9YhNRZAzZrMFC6PL8tRJ4SCve6V8eQAW11LSCyILakhEkC6PL8tRJ8YYSbXxao12SOq8rVwHOGQRZC6PL9CC040B84F7D2F8F428EB31BFCB31C4A
 0000:05C4       _D8mainfile3Fzo9YhNRZAzZrMFC6PL8tRJ4SCve6V8eQAW11LSCyILakhEkC6PL8tRJ8YYSbXxao12SOq8rVwHOGQRZC6PLA35C0DAD59694C31D5A1E48CB5E59B03
 0000:0608       _D8mainfile3Fzo9YhNRZAzZrMFC6PL8tRJ4SCve6V8eQAW11LSCyILakhEkC6PL8tRJ8YYSbXxao12SOq8rVwHOGQRZC6PLC09CAE8476204EEA2D40F97D73ECC6A5
 0000:0638       _D8mainfile3Fzo9YhNRZAzZrMFC6PL8tRJ4SCve6V8eQAW11LSCyILakhEkC6PL8tRJ8YYSbXxao12SOq8rVwHOGQRZC6PLCEA7B9310B3CEFA6064F77A950C51C30
 0ABB:006C       _D8mainfile3Fzo9YhNRZAzZrMFC6PL8tRJ4SCve6V8eQAW11LSCyILakhEkÄà°8YYSbXxao12SOq8rVwHOGQRZÄï¡2Nd4PsjPBdmpz10AeVPot9oCd6__initZ
 0ABB:0050       _D8mainfile3Fzo9YhNRZAzZrMFC6PL8tRJ4SCve6V8eQAW11LSCyILakhEkÄà°8YYSbXxao12SOq8rVwHOGQRZÄï¡2Nd4PsjPBdmpz5St_uz6__initZ
 0ABB:0040       _D8mainfile3Fzo9YhNRZAzZrMFC6PL8tRJ4SCve6V8eQAW11LSCyILakhEkÄà°8YYSbXxao12SOq8rVwHOGQRZÄï¡2Nd4PsjPBdmpz6KlJyEo6__initZ
 0000:0458       _D8mainfile3Fzo9YhNRZAzZrMFC6PL8tRJ4SCve6V8eQAW11LSCyILakhEkÄà°8YYSbXxao12SOq8rVwHOGQRZÄï¡2Nd4PsjPBdmpz9O6sZKgAsMMFZAa
 0ABB:0038       _D8mainfile3Fzo9YhNRZAzZrMFC6PL8tRJ4SCve6V8eQAW11LSCyILakhEkÄà°8YYSbXxao12SOq8rVwHOGQRZÄï¡2Nd4PsjPBdmpz9PR42k4_Jh6__initZ
 0ABB:0010       _D8mainfile7Ai5U7pgb
 0000:0838       _D8mainfile7__arrayZ
 04CC:1B50       _D90TypeInfo_S3std4bind63__T5TupleTC6PL8tRJ6VQL0re5IY1n6TC6PL8tRJ6VQL0re9U0813Zf5UTDFZvZ5Tuple6__initZ
 0000:3238       __D6PL8tRJ10OmlO6wmTZ29__modctorFZv
 0000:3244       __D6PL8tRJ10OmlO6wmTZ29__moddtorFZv
 0000:2844       __D6PL8tRJ4UVkL9__modctorFZv
 0000:2394       __D6PL8tRJ5S_8Ue9__modctorFZv
 0000:23A4       __D6PL8tRJ5S_8Ue9__moddtorFZv
 0000:1AF8       __D6PL8tRJ6VQL0re9__modctorFZv
 0000:0F98       __D6PL8tRJ8YYSbXxao9__modctorFZv
 0000:0658       __Dmain
 0000:0BFC       __imp__VirtualAlloc@16

  Address         Publics by Value

 0000:0000       _D8mainfile14JhcGTAWNYpsmH113JkqHMLwsZGazf5Phri3MFZv
 0000:0014       _D8mainfile14JhcGTAWNYpsmH113JkqHMLwsZGazf10S0ubOBkmqGMFZv
 0000:0028       _D8mainfile14JhcGTAWNYpsmH14KoU2MFZv
 0000:003C       _D8mainfile14JhcGTAWNYpsmH15TxOdGMFZb
 0000:0080       _D8mainfile14JhcGTAWNYpsmH18NWhwAz6NMFAaZb
 0000:00B4       _D8mainfile14JhcGTAWNYpsmH18Qb1p7zsJMFKAAaZv
 0000:00E4       _D8mainfile14JhcGTAWNYpsmH18Qb1p7zsJMFKAAaZv16__foreachbody179MFKAaKbZi
 0000:0124       _D8mainfile12SWhnfUrJKQ7n6opCallFPS7WrsbrqT4CnAzbZS8mainfile12SWhnfUrJKQ7n
 0000:0140       _D8mainfile15V3C8P_3Hb77mFyO5_ctorMFZC8mainfile15V3C8P_3Hb77mFyO
 0000:014C       _D8mainfile15V3C8P_3Hb77mFyO3TMhMFZv
 0000:0160       _D8mainfile15V3C8P_3Hb77mFyO10S0ubOBkmqGMFAaZv
 0000:01D4       _D8mainfile12KjIE8qFD6_J_11EG4mcjDU8udMFZv
 0000:01E8       _D8mainfile12KjIE8qFD6_J_14RoHuCBCrUVlFz9MFZv
 0000:0208       _D8mainfile12KjIE8qFD6_J_16AaS9TYEKX4J_yh3RMFZv
 0000:0238       _D8mainfile12KjIE8qFD6_J_16AaS9TYEKX4J_yh3RMFZv13GWDLVqAEVR0u4MFKS5Qdudr13AeGY1BFD7I0sTZm
 0000:0260       _D8mainfile12KjIE8qFD6_J_16AaS9TYEKX4J_yh3RMFZv8NGvp5qIfMFZv
 0000:026C       _D8mainfile12KjIE8qFD6_J_10FNR6UrjEOSMFZi
 0000:02A8       _D8mainfile3Fzo9YhNRZAzZrMFC6PL8tRJ4SCve6V8eQAW11LSCyILakhEkC6PL8tRJ8YYSbXxao12SOq8rVwHOGQRZC6PL8tRJ4SCve6V8eQAW12Nd4PsjPBdmpz
 0000:0458       _D8mainfile3Fzo9YhNRZAzZrMFC6PL8tRJ4SCve6V8eQAW11LSCyILakhEkÄà°8YYSbXxao12SOq8rVwHOGQRZÄï¡2Nd4PsjPBdmpz9O6sZKgAsMMFZAa
 0000:05A8       _D8mainfile3Fzo9YhNRZAzZrMFC6PL8tRJ4SCve6V8eQAW11LSCyILakhEkC6PL8tRJ8YYSbXxao12SOq8rVwHOGQRZC6PL9CC040B84F7D2F8F428EB31BFCB31C4A
 0000:05C4       _D8mainfile3Fzo9YhNRZAzZrMFC6PL8tRJ4SCve6V8eQAW11LSCyILakhEkC6PL8tRJ8YYSbXxao12SOq8rVwHOGQRZC6PLA35C0DAD59694C31D5A1E48CB5E59B03
 0000:05E0       _D8mainfile3Fzo9YhNRZAzZrMFC6PL8tRJ4SCve6V8eQAW11LSCyILakhEkC6PL8tRJ8YYSbXxao12SOq8rVwHOGQRZC6PL375E73B35FF7F970E855ACA57A7D1A4C
 0000:05F4       _D8mainfile3Fzo9YhNRZAzZrMFC6PL8tRJ4SCve6V8eQAW11LSCyILakhEkC6PL8tRJ8YYSbXxao12SOq8rVwHOGQRZC6PL270665373D411B209DF1288C129604D1
 0000:0608       _D8mainfile3Fzo9YhNRZAzZrMFC6PL8tRJ4SCve6V8eQAW11LSCyILakhEkC6PL8tRJ8YYSbXxao12SOq8rVwHOGQRZC6PLC09CAE8476204EEA2D40F97D73ECC6A5
 0000:0638       _D8mainfile3Fzo9YhNRZAzZrMFC6PL8tRJ4SCve6V8eQAW11LSCyILakhEkC6PL8tRJ8YYSbXxao12SOq8rVwHOGQRZC6PLCEA7B9310B3CEFA6064F77A950C51C30
 0000:0648       _D8mainfile3Fzo9YhNRZAzZrMFC6PL8tRJ4SCve6V8eQAW11LSCyILakhEkC6PL8tRJ8YYSbXxao12SOq8rVwHOGQRZC6PL00104BDA0FD3854521F29580CDF103E5
 0000:0658       __Dmain
 0000:06B0       _D6PL8tRJ5S_8Ue12__T3G8sTiTiZ3G8sFiiZi
 0000:06C8       _D6PL8tRJ5S_8Ue16__T5FagXzTAaTAaZ5FagXzFHAaAaAaAaZAa
 0000:06F0       _D6PL8tRJ4SCve10S4lHH6gZNI14DEbkdp_8fRzMXX147__T9Q3dUAuae1TS8mainfile3Fzo9YhNRZAzZrMFC6PL8tRJ4SCDB3A4F9E4D8809CB8F21FBCA21D5F36D
 0000:071C       _D6PL8tRJ4SCve10S4lHH6gZNI14DEbkdp_8fRzMXX40__T9Q3dUAuae1TAS8mainfile12SWhnfUrJKQ7nZÄä•MFÄö¶CÄ®˘
 0000:0748       _D6PL8tRJ4SCve10S4lHH6gZNI14DEbkdp_8fRzMXX158__T9Q3dUAuae1TS8mainfile3Fzo9YhNRZAzZrMFC6PL8tRJ4SCF26417C0939C9E6216191A8DF1D36FD2
 0000:077C       _D6PL8tRJ4SCve10S4lHH6gZNI14DEbkdp_8fRzMXX160__T9Q3dUAuae1TS8mainfile3Fzo9YhNRZAzZrMFC6PL8tRJ4SCF466868EE810C313FE2300D422D65C1E
 0000:07A8       _D6PL8tRJ4SCve10S4lHH6gZNI14DEbkdp_8fRzMXX18__T9Q3dUAuae1TG2aZ9Q3dUAuae1MFG2aZC6PL8tRJ4SCve10S4lHH6gZNI14DEbkdp_8fRzMXX
 0000:07D4       _D6PL8tRJ4SCve10S4lHH6gZNI14DEbkdp_8fRzMXX146__T9Q3dUAuae1TS8mainfile3Fzo9YhNRZAzZrMFC6PL8tRJ4SC0DCF90446326D7659B1437C69055A411
 0000:080C       _D6PL8tRJ4SCve10S4lHH6gZNI14DEbkdp_8fRzMXX152__T9Q3dUAuae1TS8mainfile3Fzo9YhNRZAzZrMFC6PL8tRJ4SC0E646DA218334DA7771D29CC95FE8E20
 0000:0838       _D8mainfile7__arrayZ
 0000:0854       _D6PL8tRJ4SCve6KzLZGz10YM9VdJR9vJ10IvEfmqD2YH5_ctorMFZC6PL8tRJ4SCve6KzLZGz10YM9VdJR9vJ10IvEfmqD2YH
 0000:0860       _D6PL8tRJ4SCve6KzLZGz10YM9VdJR9vJ10IvEfmqD2YH5_dtorMFZv
 0000:086C       _D6PL8tRJ4SCve6KzLZGz10YM9VdJR9vJ10IvEfmqD2YH12JvCAfK0PL9AGMFZv
 0000:0880       _D6PL8tRJ4SCve6KzLZGz10YM9VdJR9vJ10IvEfmqD2YH14KjLxGPJ2U3XqwVMFZv
 0000:0894       _D6PL8tRJ4SCve6KzLZGz10YM9VdJR9vJ10IvEfmqD2YH14TliX2AOGMZt108MFZv
 0000:08A8       _D6PL8tRJ4SCve6KzLZGz10YM9VdJR9vJ10IvEfmqD2YH12EMcXZ72Xw0SpMFC6PL8tRJ4SCve6V8eQAW12Nd4PsjPBdmpzZv
 0000:08EC       _D6PL8tRJ4SCve6KzLZGz10YM9VdJR9vJ10IvEfmqD2YH12EMcXZ72Xw0SpMFC6PL8tRJ4SCve6V8eQAW12Nd4PsjPBdmpzZv16__foreachbody183MFKAaKAaZi
 0000:095C       _D6PL8tRJ4SCve6KzLZGz10YM9VdJR9vJ10IvEfmqD2YH10EggRRDNm8vMFZv
 0000:0970       _D6PL8tRJ4SCve6KzLZGz10YM9VdJR9vJ7MP4fQpdMFZv
 0000:097C       _D6PL8tRJ4SCve6KzLZGz10YM9VdJR9vJ8ZLZEsd1JMFZv
 0000:0988       _D6PL8tRJ4SCve6KzLZGz10YM9VdJR9vJ5_ctorMFZC6PL8tRJ4SCve6KzLZGz10YM9VdJR9vJ
 0000:0994       _D6PL8tRJ4SCve6KzLZGz10YM9VdJR9vJ5_dtorMFZv
 0000:09A0       _D6PL8tRJ4SCve6KzLZGz10YM9VdJR9vJ6MTQOz5MFtAaZt
 0000:09C8       _D6PL8tRJ4SCve6KzLZGz10YM9VdJR9vJ5WdoHJMFZv
 0000:09DC       _D6PL8tRJ8YYSbXxao13JFI8ULUOXLUwP8GrLGy3OOMFZv
 0000:09E8       _D6PL8tRJ8YYSbXxao13JFI8ULUOXLUwP10B09VbHYaTUMFZv
 0000:0A20       _D6PL8tRJ8YYSbXxao13JFI8ULUOXLUwP5_ctorMFZC6PL8tRJ8YYSbXxao13JFI8ULUOXLUwP
 0000:0A2C       _D6PL8tRJ8YYSbXxao13JFI8ULUOXLUwP5_dtorMFZv
 0000:0A38       _D6PL8tRJ8YYSbXxao13JFI8ULUOXLUwP4sizeMFZi
 0000:0A50       _D6PL8tRJ8YYSbXxao13JFI8ULUOXLUwP4JzZoMFZv
 0000:0A64       _D6PL8tRJ8YYSbXxao13JFI8ULUOXLUwP4JzZoMFZv7SpIslXiFZl
 0000:0AAC       _D6PL8tRJ8YYSbXxao13Sj9asAviCk8sA6YHv8nOMFZC6PL8tRJ10OmlO6wmTZ26Yaxccj
 0000:0ABC       _D6PL8tRJ8YYSbXxao13Sj9asAviCk8sA9JLzVQCvjVMFZS6PL8tRJ8YYSbXxao9BJfKKwjMb
 0000:0AD0       _D6PL8tRJ8YYSbXxao13Sj9asAviCk8sA10N4hP6hkWYcMFZv
 0000:0ADC       _D6PL8tRJ8YYSbXxao13Sj9asAviCk8sA10XvZqeglqBAMFZv
 0000:0AE8       _D6PL8tRJ8YYSbXxao13Sj9asAviCk8sA7DaqXfWlMFAaZv
 0000:0AF4       _D6PL8tRJ8YYSbXxao13Sj9asAviCk8sA5_ctorMFZC6PL8tRJ8YYSbXxao13Sj9asAviCk8sA
 0000:0B00       _D6PL8tRJ8YYSbXxao13Sj9asAviCk8sA5_dtorMFZv
 0000:0B0C       _D6PL8tRJ8YYSbXxao13Sj9asAviCk8sA13Cqxk2uLAIns9xMFZAa
 0000:0BAC       _D6PL8tRJ8YYSbXxao13Sj9asAviCk8sA8FQS8MYEYMFZAa
 0000:0BCC       _D6PL8tRJ8YYSbXxao13Sj9asAviCk8sA12I4aSQV6vMHMnMFZv
 0000:0BE0       _D6PL8tRJ8YYSbXxao12SOq8rVwHOGQR5_ctorMFC6PL8tRJ10OmlO6wmTZ26YaxccjZC6PL8tRJ8YYSbXxao12SOq8rVwHOGQR
 0000:0BF8       _D6PL8tRJ8YYSbXxao12SOq8rVwHOGQR9JLzVQCvjVMFZS6PL8tRJ8YYSbXxao9BJfKKwjMb
 0000:0C0C       _D6PL8tRJ8YYSbXxao12SOq8rVwHOGQR10N4hP6hkWYcMFZv
 0000:0C18       _D6PL8tRJ8YYSbXxao12SOq8rVwHOGQR10XvZqeglqBAMFZv
 0000:0C24       _D6PL8tRJ8YYSbXxao12SOq8rVwHOGQR7DaqXfWlMFAaZv
 0000:0C30       _D6PL8tRJ8YYSbXxao12SOq8rVwHOGQR11L8muxn044r7MFZv
 0000:0C3C       _D6PL8tRJ8YYSbXxao12SOq8rVwHOGQR5_ctorMFZC6PL8tRJ8YYSbXxao12SOq8rVwHOGQR
 0000:0C50       _D6PL8tRJ8YYSbXxao12SOq8rVwHOGQR5_dtorMFZv
 0000:0C5C       _D6PL8tRJ8YYSbXxao12SOq8rVwHOGQR7QXBe2HtMFZv
 0000:0C70       _D6PL8tRJ8YYSbXxao12SOq8rVwHOGQR10EggRRDNm8vMFAaE6PL8tRJ8YYSbXxao14CIqwuuHVVTAYGZZv
 0000:0C84       _D6PL8tRJ8YYSbXxao12SOq8rVwHOGQR4UL0qMFAvZv
 0000:0C98       _D6PL8tRJ8YYSbXxao12SOq8rVwHOGQR5TxOdGMFZv
 0000:0CAC       _D6PL8tRJ8YYSbXxao12SOq8rVwHOGQR10H_I4_i50bnMFZv
 0000:0CC0       _D6PL8tRJ8YYSbXxao12SOq8rVwHOGQR12H8Iwv5mTFgsFMFZb
 0000:0CE0       _D6PL8tRJ8YYSbXxao12SOq8rVwHOGQR17NXVVt7K8tr5M27VuYMFZv
 0000:0CF4       _D6PL8tRJ8YYSbXxao12SOq8rVwHOGQR17JfReq6YRMFVQqWSgkMFZv
 0000:0D08       _D6PL8tRJ8YYSbXxao12SOq8rVwHOGQR14YZUCFxViFCGgoYMFZv
 0000:0D1C       _D6PL8tRJ8YYSbXxao12SOq8rVwHOGQR11EeSSTCZ9AWSMFZv
 0000:0D30       _D6PL8tRJ8YYSbXxao12SOq8rVwHOGQR11HSI4bignzRhMFZb
 0000:0D48       _D6PL8tRJ8YYSbXxao18S6OzYzbrD9Ac2ODNXe10SqZ10h9QCiMFZv
 0000:0D54       _D6PL8tRJ8YYSbXxao18S6OzYzbrD9Ac2ODNXe17NXVVt7K8tr5M27VuYMFZv
 0000:0D68       _D6PL8tRJ8YYSbXxao18S6OzYzbrD9Ac2ODNXe17JfReq6YRMFVQqWSgkMFZv
 0000:0D7C       _D6PL8tRJ8YYSbXxao18S6OzYzbrD9Ac2ODNXe5_ctorMFZC6PL8tRJ8YYSbXxao18S6OzYzbrD9Ac2ODNXe
 0000:0D90       _D6PL8tRJ8YYSbXxao18S6OzYzbrD9Ac2ODNXe5_ctorMFC6PL8tRJ10OmlO6wmTZ26YaxccjZC6PL8tRJ8YYSbXxao18S6OzYzbrD9Ac2ODNXe
 0000:0DA8       _D6PL8tRJ8YYSbXxao18S6OzYzbrD9Ac2ODNXe5_dtorMFZv
 0000:0DB4       _D6PL8tRJ8YYSbXxao18S6OzYzbrD9Ac2ODNXe10EggRRDNm8vMFAaE6PL8tRJ8YYSbXxao14CIqwuuHVVTAYGZZv
 0000:0DC8       _D6PL8tRJ8YYSbXxao18S6OzYzbrD9Ac2ODNXe4UL0qMFZv
 0000:0DDC       _D6PL8tRJ8YYSbXxao12_staticCtor1FZv
 0000:0DE4       _D6PL8tRJ8YYSbXxao57__T19W05uXgmxIE2FYC1XnP5TCÄê¨12SOq8rVwHOGQRZÄï∂8E05eODO45_ctorMFÄà∆10OmlO6wmTZ26YaxccjZÄë‚ÅŸé
 0000:0DFC       _D6PL8tRJ8YYSbXxao57__T19W05uXgmxIE2FYC1XnP5TCÄê¨12SOq8rVwHOGQRZÄï∂8E05eODO49JLzVQCvjVMFZSÄêÀ9BJfKKwjMb
 0000:0E18       _D6PL8tRJ8YYSbXxao57__T19W05uXgmxIE2FYC1XnP5TC6PL8tRJ8YYSbXxao12SOq8rVwHOGQRZ19W05uXgmxIE2FYC1XnP58E05eODO410N4hP6hkWYcMFZv
 0000:0E2C       _D6PL8tRJ8YYSbXxao57__T19W05uXgmxIE2FYC1XnP5TC6PL8tRJ8YYSbXxao12SOq8rVwHOGQRZ19W05uXgmxIE2FYC1XnP58E05eODO410XvZqeglqBAMFZv
 0000:0E40       _D6PL8tRJ8YYSbXxao57__T19W05uXgmxIE2FYC1XnP5TC6PL8tRJ8YYSbXxao12SOq8rVwHOGQRZ19W05uXgmxIE2FYC1XnP58E05eODO47DaqXfWlMFAaZv
 0000:0E54       _D6PL8tRJ8YYSbXxao57__T19W05uXgmxIE2FYC1XnP5TC6PL8tRJ8YYSbXxao12SOq8rVwHOGQRZ19W05uXgmxIE2FYC1XnP58E05eODO413RPFDPLvt8uAFoMFZv
 0000:0E68       _D6PL8tRJ8YYSbXxao57__T19W05uXgmxIE2FYC1XnP5TCÄê¨12SOq8rVwHOGQRZÄï∂5_ctorMFZÄëæÄ–Í
 0000:0E74       _D6PL8tRJ8YYSbXxao57__T19W05uXgmxIE2FYC1XnP5TC6PL8tRJ8YYSbXxao12SOq8rVwHOGQRZ19W05uXgmxIE2FYC1XnP55_dtorMFZv
 0000:0E80       _D6PL8tRJ8YYSbXxao57__T19W05uXgmxIE2FYC1XnP5TC6PL8tRJ8YYSbXxao12SOq8rVwHOGQRZ19W05uXgmxIE2FYC1XnP56MTQOz5MFtAaZt
 0000:0F64       _D6PL8tRJ8YYSbXxao57__T19W05uXgmxIE2FYC1XnP5TC6PL8tRJ8YYSbXxao12SOq8rVwHOGQRZ19W05uXgmxIE2FYC1XnP55WdoHJMFZv
 0000:0F78       _D6PL8tRJ5S_8Ue12__T3GlcTlTlZ3GlcFllZl
 0000:0F98       __D6PL8tRJ8YYSbXxao9__modctorFZv
 0000:0FA4       _D6PL8tRJ6VQL0re5IY1n63KMNMFZv
 0000:0FB8       _D6PL8tRJ6VQL0re5IY1n65_ctorMFZC6PL8tRJ6VQL0re5IY1n6
 0000:0FC4       _D6PL8tRJ6VQL0re5IY1n65_dtorMFZv
 0000:0FD0       _D6PL8tRJ6VQL0re5IY1n64KoU2MFZv
 0000:104C       _D6PL8tRJ6VQL0re5IY1n63KMNMFC6PL8tRJ6VQL0re9U0813Zf5UZv
 0000:1060       _D6PL8tRJ6VQL0re5IY1n67NM8PTSHMFZv
 0000:1074       _D6PL8tRJ6VQL0re5IY1n66Cw4UF9MFZv
 0000:1088       _D6PL8tRJ6VQL0re5IY1n69SeHH1IjztMFZl
 0000:10B8       _D6PL8tRJ6VQL0re9U0813Zf5U5_ctorMFlZC6PL8tRJ6VQL0re9U0813Zf5U
 0000:10C8       _D6PL8tRJ6VQL0re9U0813Zf5U5_dtorMFZv
 0000:10D4       _D6PL8tRJ6VQL0re9U0813Zf5U9G7k2s7rgdMFZb
 0000:10F4       _D6PL8tRJ6VQL0re9U0813Zf5U8FoFwFPcUMFZl
 0000:1110       _D6PL8tRJ6VQL0re9U0813Zf5U8Lm1wGRyOMFZv
 0000:1124       _D6PL8tRJ6VQL0re15ZW8ZKNwrOMTMoUg5_ctorMFZC6PL8tRJ6VQL0re15ZW8ZKNwrOMTMoUg
 0000:1130       _D6PL8tRJ6VQL0re15ZW8ZKNwrOMTMoUg5_dtorMFZv
 0000:113C       _D6PL8tRJ6VQL0re15ZW8ZKNwrOMTMoUg4KoU2MFZb
 0000:117C       _D6PL8tRJ6VQL0re15ZW8ZKNwrOMTMoUg3KMNMFZv
 0000:1190       _D6PL8tRJ6VQL0re15ZW8ZKNwrOMTMoUg6Cw4UF9MFZv
 0000:11A4       _D6PL8tRJ6VQL0re15ZW8ZKNwrOMTMoUg7XgnZ9_SMFZb
 0000:11C4       _D6PL8tRJ6VQL0re12_staticCtor2FZv
 0000:11CC       _D6PL8tRJ6VQL0re7A3br8kL6opCallMFZb
 0000:11FC       _D6PL8tRJ6VQL0re10RBvP6Qph6kFDFZvlZv
 0000:1258       _D6PL8tRJ6VQL0re10RBvP6Qph6kFDFZvlZv12__dgliteral4MFC6PL8tRJ6VQL0re5IY1n6C6PL8tRJ6VQL0re9U0813Zf5UDFZvZv
 0000:1264       _D6PL8tRJ6VQL0re8Yuel3uMc6opCallMFZb
 0000:1278       _D6PL8tRJ5S_8Ue12__T3G8sTiTlZ3G8sFilZl
 0000:1298       _D3std4bind137__T4bindTDFC6PL8tRJ6VQL0re5IY1n6C6PL8tRJ6VQL0re9U0813Zf5UDFZvZvTS3std4bind14__T6Dy38565852157B506FD320F54E02DBB316
 0000:12D8       _D3std4bind83__T5TupleTS3std4bind14__T6DynArgVi0Z6DynArgTS3std4bind14__T6DynArgVi1Z6DynArgTDFZvZ5Tuple8toStringMFZAa
 0000:13D8       _D3std4bind215__T9BoundFuncTDFC6PL8tRJ6VQL0re5IY1n6C6PL8tRJ6VQL0re9U0813Zf5UDFZvZvS41_D3std4bind4615BF66D254463D132CB459F8C70535
 0000:142C       _D3std4bind215__T9BoundFuncTDFC6PL8tRJ6VQL0re5IY1n6C6PL8tRJ6VQL0re9U0813Zf5UDFZvZvS41_D3std4bind3F6498C2BA9D2A5B48EDEFB62721C39C
 0000:1448       _D3std4bind63__T5TupleTC6PL8tRJ6VQL0re5IY1n6TC6PL8tRJ6VQL0re9U0813Zf5UTDFZvZ5Tuple8toStringMFZAa
 0000:1548       _D3std4bind10__T5TupleZ5Tuple8toStringMFZAa
 0000:1584       _D3std4bind15__T5TupleTDFZvZ5Tuple8toStringMFZAa
 0000:160C       _D3std4bind41__T5TupleTC6PL8tRJ6VQL0re9U0813Zf5UTDFZvZ5Tuple8toStringMFZAa
 0000:16D4       _D3std4bind32__T5TupleTC6PL8tRJ6VQL0re5IY1n6Z5Tuple8toStringMFZAa
 0000:1758       _D3std4bind36__T5TupleTC6PL8tRJ6VQL0re9U0813Zf5UZ5Tuple8toStringMFZAa
 0000:17DC       _D3std4bind58__T5TupleTC6PL8tRJ6VQL0re5IY1n6TC6PL8tRJ6VQL0re9U0813Zf5UZ5Tuple8toStringMFZAa
 0000:18A0       _D3std4bind49__T5TupleTS3std4bind14__T6DynArgVi1Z6DynArgTDFZvZ5Tuple8toStringMFZAa
 0000:1968       _D3std4bind101__T16extractBoundArgsVi0“TSÄä©4ÄÉ®6DynÄÉûÄÉöZÄáãÄô¢1Äâ¢DFZvZÄí‚FKÄãª5ÄÉª5TupleÄÜØÄÜåÄ°˛Ä°˝ÄÖÕv
 0000:1984       _D3std4bind101__T16extractBoundArgsVi0—1TSÄä©4ÄÉ®6DynÄÉûÄÉùZÄáãÄô¢1Äâ¢DFZvZÄí‚FKÄãª5ÄÉª5TupleÄÜØÄÜåÄ°˛Ä°˝ÄÖÕv
 0000:19A0       _D3std4bind101__T16extractBoundArgsVi0—2TSÄä©4ÄÉ®6DynÄÉûÄÉùZÄáãÄô¢1Äâ¢DFZvZÄí‚FKÄãª5ÄÉª5TupleÄÜØÄÜåÄ°˛Ä°˝ÄÖÕv
 0000:19C8       _D3std4bind22__T7_assignTDFZvTDFZvZ7_assignFKDFZvKDFZvZv
 0000:19E4       _D3std4bind101__T16extractBoundArgsVi1—3TSÄä©4ÄÉ®6DynÄÉûVi0ZÄáãÄô¢1Äâ¢DFZvZÄí‚FKÄãª5ÄÉª5TupleÄÜØÄÜåÄ°˛Ä°˝ÄÖÕv
 0000:19EC       _D3std4bind215__T9BoundFuncTDFC6PL8tRJ6VQL0re5IY1n6C6PL8tRJ6VQL0re9U0813Zf5UDFZvZvS41_D3std4bindBBA6369FD88A8FD8E055C410AD63645C
 0000:1A20       _D3std4bind59__T7_assignTC6PL8tRJ6VQL0re5IY1n6TC6PL8tRJ6VQL0re5IY1n6Vb1Z7_assignFKC6PL8tRJ6VQL0re5IY1n6KC6PL8tRJ6VQL0re5IY1n6Zv
 0000:1A38       _D3std4bind215__T9BoundFuncTDFC6PL8tRJ6VQL0re5IY1n6C6PL8tRJ6VQL0re9U0813Zf5UDFZvZvS41_D3std4bind89ED239ED8B58B13134C13CAD3171676
 0000:1A70       _D3std4bind67__TŸassignTC6PL8tRJ6VQL0re9U0813Zf5UÄööVb1ZÄà¿FKÄôßÄööZv
 0000:1A88       _D3std4bind215__T9BoundFuncTDFC6PL8tRJ6VQL0re5IY1n6C6PL8tRJ6VQL0re9U0813Zf5UDFZvZvS41_D3std4bindC4A923CC5FDD797E938BB58FC6158D20
 0000:1AC8       _D3std4bind25__T7_assignTDFZvTDFZvVb0Z7_assignFKDFZvKDFZvZv
 0000:1AE4       _D3std4bind215__T9BoundFuncTDFC6PL8tRJ6VQL0re5IY1n6C6PL8tRJ6VQL0re9U0813Zf5UDFZvZvS41_D3std4bindECD50ED944F6D6D7CB714ADA61F034BB
 0000:1AF8       __D6PL8tRJ6VQL0re9__modctorFZv
 0000:1B04       _D6PL8tRJ5S_8Ue10SVIqFGOvmfFZAa
 0000:1B14       _D6PL8tRJ5S_8Ue14D118AyuWqrVUWOFAaAaZi
 0000:1B5C       _D6PL8tRJ5S_8Ue16HeVdg434ipQjfeGGFZf
 0000:1B64       _D6PL8tRJ5S_8Ue14MhdiNsviG9FVJcFZAa
 0000:1B74       _D6PL8tRJ5S_8Ue10Ab7pSyG2CPFAaAaZb
 0000:1B94       _D6PL8tRJ5S_8Ue11VD9mxq6r9NRFAaZb
 0000:1BAC       _D6PL8tRJ5S_8Ue8XhDsFRRvFAaAaZb
 0000:1BCC       _D6PL8tRJ5S_8Ue8NcsqCN8kFAaAaZb
 0000:1BEC       _D6PL8tRJ5S_8Ue12KL015UxFfyY7FZb
 0000:1BF4       _D6PL8tRJ5S_8Ue12GhrxnA1UNW5yFAAaZAa
 0000:1C14       _D6PL8tRJ5S_8Ue12CxvePUvbrHnSFZAa
 0000:1C24       _D6PL8tRJ5S_8Ue13Ct8pncUn6v1D2FAaZAa
 0000:1C34       _D6PL8tRJ5S_8Ue7AkfxrF7FZAa
 0000:1CA8       _D6PL8tRJ5S_8Ue7UyPI1V5FtZt
 0000:1CBC       _D6PL8tRJ5S_8Ue7UyPI1V5FkZk
 0000:1CC8       _D6PL8tRJ5S_8Ue6C7fip1FtZt
 0000:1CD8       _D6PL8tRJ5S_8Ue6RdSPsyFkZk
 0000:1CEC       _D6PL8tRJ5S_8Ue6RdSPsyFtZt
 0000:1D00       _D6PL8tRJ5S_8Ue7DgIaPnSFZk
 0000:1D0C       _D6PL8tRJ5S_8Ue12Ti3xS2ty7PEmFAaZAh
 0000:1D20       _D6PL8tRJ5S_8Ue7Ycxj99yFZk
 0000:1D30       _D6PL8tRJ5S_8Ue11IGs7ghZiZpaFAvkZk
 0000:1D4C       _D6PL8tRJ5S_8Ue9ZfpKsTqIkFAhZAh
 0000:1D8C       _D6PL8tRJ5S_8Ue6T4_1EZFAaZk
 0000:1DA4       _D6PL8tRJ5S_8Ue6TMzE9sFAaZAa
 0000:1DB4       _D6PL8tRJ5S_8Ue9QMUbSLnI5FZAa
 0000:1DCC       _D6PL8tRJ5S_8Ue9HXl1D8GCrFAaZAa
 0000:1E2C       _D6PL8tRJ5S_8Ue9HXl1D8GCrFAaZAa16__foreachbody184MFKwZi
 0000:1E54       _D6PL8tRJ5S_8Ue19S9aTbJWisp2710zY_KjFAaZAa
 0000:1E70       _D6PL8tRJ5S_8Ue15KocCO3Co4CAtsR7FZS3std1c7windows7windows8FILETIME
 0000:1E7C       _D6PL8tRJ5S_8Ue15Thb5sxAGWRNmCb5FPS3std1c7windows7windows8FILETIMEZl
 0000:1EB8       _D6PL8tRJ5S_8Ue8JL09pYh8FZv
 0000:1EC0       _D6PL8tRJ5S_8Ue8WnRCThIKFZl
 0000:1ED8       _D6PL8tRJ5S_8Ue12_staticCtor3FZv
 0000:1EE0       _D6PL8tRJ5S_8Ue12BYb8E8yapCjLFiiiiiiZi
 0000:1F28       _D6PL8tRJ5S_8Ue12BYb8E8yapCjLFiiiiiiZi14__dgliteral185MFZAa
 0000:1F4C       _D6PL8tRJ5S_8Ue12KoWLKu0PE2HEFiiiiiiZl
 0000:1F84       _D6PL8tRJ5S_8Ue13DFVNJWxk3ucVpFAaZl
 0000:1FEC       _D6PL8tRJ5S_8Ue20SNpMTYk0F_65I7CqeGh5FiZAa
 0000:2010       _D6PL8tRJ5S_8Ue16V6U6o15mbRrpGpUiFlZAa
 0000:2034       _D6PL8tRJ5S_8Ue17Fs_n585KgABOgRNt0FAaZl
 0000:2048       _D6PL8tRJ5S_8Ue14QQF6EBVLHudaLhFZl
 0000:2060       _D6PL8tRJ5S_8Ue9UYCSJGV5zFZv
 0000:2068       _D6PL8tRJ5S_8Ue19M32Uvhn0KYWnMnWJvoh5_ctorMFZC6PL8tRJ5S_8Ue19M32Uvhn0KYWnMnWJvoh
 0000:2074       _D6PL8tRJ5S_8Ue19M32Uvhn0KYWnMnWJvoh6FQeo7LMFAaZPb
 0000:20A4       _D6PL8tRJ5S_8Ue19M32Uvhn0KYWnMnWJvoh13Y7ip4JjGCVx91MFZv
 0000:20B8       _D6PL8tRJ5S_8Ue19M32Uvhn0KYWnMnWJvoh6Cw4UF9MFZv
 0000:20CC       _D6PL8tRJ5S_8Ue19M32Uvhn0KYWnMnWJvoh6lengthMFZk
 0000:20EC       _D6PL8tRJ5S_8Ue19M32Uvhn0KYWnMnWJvoh4J4wdMFZv
 0000:20F8       _D6PL8tRJ5S_8Ue12_staticCtor4FZv
 0000:2100       _D6PL8tRJ5S_8Ue12_staticDtor5FZv
 0000:2108       _D6PL8tRJ5S_8Ue10O8qpvSPivoFZv
 0000:2110       _D6PL8tRJ5S_8Ue10DpS6nmCppmFZv
 0000:2118       _D6PL8tRJ5S_8Ue7Qe3kUCqFbAaZv
 0000:2120       _D6PL8tRJ5S_8Ue11HOcBhyKzCx0FbLAaZv
 0000:2128       _D6PL8tRJ5S_8Ue11C_ghe9yGo98FAaZAAa
 0000:213C       _D6PL8tRJ5S_8Ue15EcthgTpzFeMHpQzFAaZAa
 0000:216C       _D6PL8tRJ5S_8Ue3RR1FZAa
 0000:2190       _D6PL8tRJ5S_8Ue14V_KmVgkayEXNr8FAaZAa
 0000:21D8       _D6PL8tRJ5S_8Ue3RR1FAaZAa
 0000:21E4       _D6PL8tRJ5S_8Ue13Bc_FiO3fKz494FZv
 0000:21EC       _D6PL8tRJ5S_8Ue8Gv2xPIsMFZAa
 0000:220C       _D6PL8tRJ5S_8Ue4UzkTFZAa
 0000:222C       _D6PL8tRJ5S_8Ue3FK4FZAa
 0000:224C       _D6PL8tRJ5S_8Ue10RyrBqJDKT8FAaZAa
 0000:2288       _D6PL8tRJ5S_8Ue5J4WvWFZAa
 0000:2294       _D6PL8tRJ5S_8Ue7P7AyEC2FAvZAa
 0000:22A0       _D6PL8tRJ5S_8Ue10__T3GlcTlZ3GlcFlZl
 0000:22BC       _D6PL8tRJ5S_8Ue16__T9TOSqK4CFdTiZ9TOSqK4CFdFkkZAAi
 0000:22E0       _D6PL8tRJ5S_8Ue18__T3GlcTiTAAiTAAiZ3GlcFiAAiAAiZAAi
 0000:2304       _D6PL8tRJ5S_8Ue16__T3GlcTAAiTAAiZ3GlcFAAiAAiZAAi
 0000:2324       _D6PL8tRJ5S_8Ue12__T3GlcTAAiZ3GlcFAAiZAAi
 0000:2340       _D6PL8tRJ5S_8Ue14__T3GlcTiTAAiZ3GlcFiAAiZAAi
 0000:235C       _D6PL8tRJ5S_8Ue15__T8GwfGlDS3ThZ8GwfGlDS3FAhkhZAh
 0000:2370       _D6PL8tRJ5S_8Ue16__T9OraaTASxNTiZ9OraaTASxNFikZAi
 0000:2394       __D6PL8tRJ5S_8Ue9__modctorFZv
 0000:23A4       __D6PL8tRJ5S_8Ue9__moddtorFZv
 0000:23B0       _D6PL8tRJ4UVkL4UVkL11__invariantMFZv
 0000:23BC       _D6PL8tRJ4UVkL4UVkL5_ctorMFAvZC6PL8tRJ4UVkL4UVkL
 0000:23D8       _D6PL8tRJ4UVkL4UVkL5_ctorMFZC6PL8tRJ4UVkL4UVkL
 0000:23F4       _D6PL8tRJ4UVkL4UVkL5_ctorMFC6PL8tRJ4UVkL11OpqlALYtxRhZC6PL8tRJ4UVkL4UVkL
 0000:2410       _D6PL8tRJ4UVkL4UVkL14DbJSRR4crzge99MFZv
 0000:242C       _D6PL8tRJ4UVkL4UVkL5VvO8kMFZv
 0000:2448       _D6PL8tRJ4UVkL4UVkL5opCatMFAvZC6PL8tRJ4UVkL4UVkL
 0000:2484       _D6PL8tRJ4UVkL4UVkL5opCatMFC6PL8tRJ4UVkL4UVkLZC6PL8tRJ4UVkL4UVkL
 0000:24B8       _D6PL8tRJ4UVkL4UVkL7opCat_rMFAvZC6PL8tRJ4UVkL4UVkL
 0000:24F4       _D6PL8tRJ4UVkL4UVkL15EkhiifewwptjuX3FkZk
 0000:2508       _D6PL8tRJ4UVkL4UVkL11KqZs3CEQfrZMFAvZC6PL8tRJ4UVkL4UVkL
 0000:252C       _D6PL8tRJ4UVkL4UVkL11KqZs3CEQfrZMFC6PL8tRJ4UVkL4UVkLZC6PL8tRJ4UVkL4UVkL
 0000:2560       _D6PL8tRJ4UVkL4UVkL11KqZs3CEQfrZMFhZC6PL8tRJ4UVkL4UVkL
 0000:2598       _D6PL8tRJ4UVkL4UVkL6S0JFukMFZC6PL8tRJ4UVkL4UVkL
 0000:25BC       _D6PL8tRJ4UVkL4UVkL7XGT3b_pMFZC6PL8tRJ4UVkL4UVkL
 0000:25F4       _D6PL8tRJ4UVkL4UVkL7XGT3b_pMFkZC6PL8tRJ4UVkL4UVkL
 0000:262C       _D6PL8tRJ4UVkL4UVkL8Pf7_il5HMFZAv
 0000:2668       _D6PL8tRJ4UVkL4UVkL3ptrMFZPv
 0000:2690       _D6PL8tRJ4UVkL4UVkL6lengthMFZk
 0000:26B8       _D6PL8tRJ4UVkL4UVkL6lengthMFkZv
 0000:26D4       _D6PL8tRJ4UVkL4UVkL3dupMFZC6PL8tRJ4UVkL4UVkL
 0000:270C       _D6PL8tRJ4UVkL14ELPrtkYhfsCL2tFC3std6stream6StreamZC6PL8tRJ4UVkL4UVkL
 0000:2730       _D6PL8tRJ4UVkL8MuZVzSVHFZC6PL8tRJ4UVkL4UVkL
 0000:27CC       _D6PL8tRJ4UVkL11OpqlALYtxRh5_ctorMFZC6PL8tRJ4UVkL11OpqlALYtxRh
 0000:27D8       _D6PL8tRJ4UVkL11OpqlALYtxRh5_dtorMFZv
 0000:27E4       _D6PL8tRJ4UVkL11OpqlALYtxRh8Pf7_il5HMFZAv
 0000:2800       _D6PL8tRJ4UVkL11OpqlALYtxRh10Tfn0c7cepkFZv
 0000:2808       _D6PL8tRJ4UVkL11OpqlALYtxRh12_staticCtor6FZv
 0000:2810       _D6PL8tRJ4UVkL11OpqlALYtxRh6FVspkuFKkZPv
 0000:2830       _D6PL8tRJ4UVkL11OpqlALYtxRh4PuDnFZv
 0000:2838       _D6PL8tRJ4UVkL14UwVxLIdJB3GnauFkZk
 0000:2844       __D6PL8tRJ4UVkL9__modctorFZv
 0000:2850       _D6PL8tRJ10OmlO6wmTZ28ICNEtjw7FZi
 0000:285C       _D6PL8tRJ10OmlO6wmTZ215Lxku55mJ9GeteFE5_ctorMFAaiZC6PL8tRJ10OmlO6wmTZ215Lxku55mJ9GeteFE
 0000:2878       _D6PL8tRJ10OmlO6wmTZ218B9UWNoCRHDRzgOLJt5FAaZC6PL8tRJ10OmlO6wmTZ215Lxku55mJ9GeteFE
 0000:28A8       _D6PL8tRJ10OmlO6wmTZ210YrZYkKI4NmFZb
 0000:28C0       _D6PL8tRJ10OmlO6wmTZ212_staticCtor7FZv
 0000:28C8       _D6PL8tRJ10OmlO6wmTZ212_staticDtor8FZv
 0000:28D0       _D6PL8tRJ10OmlO6wmTZ27VuJ7ItS16ZDk27H7EPWszeIWsMFZb
 0000:28E4       _D6PL8tRJ10OmlO6wmTZ27VuJ7ItS16ZDk27H7EPWszeIWsMFAaZb
 0000:28FC       _D6PL8tRJ10OmlO6wmTZ27VuJ7ItS16XWepXTuiuqDrvCgkMFZb
 0000:2910       _D6PL8tRJ10OmlO6wmTZ27VuJ7ItS16XWepXTuiuqDrvCgkMFtZb
 0000:2928       _D6PL8tRJ10OmlO6wmTZ213Fydbda36iVXSg5_ctorMFZC6PL8tRJ10OmlO6wmTZ213Fydbda36iVXSg
 0000:2944       _D6PL8tRJ10OmlO6wmTZ212DpaJJ9PApdWC12MxqOg7mlg_7GMFZv
 0000:2958       _D6PL8tRJ10OmlO6wmTZ212DpaJJ9PApdWC8XoBh6WkKMFZv
 0000:296C       _D6PL8tRJ10OmlO6wmTZ212DpaJJ9PApdWC13C_9OZ8Yzotc9XMFZb
 0000:2980       _D6PL8tRJ10OmlO6wmTZ212DpaJJ9PApdWC13QATNzwaqf4ERoMFZb
 0000:2994       _D6PL8tRJ10OmlO6wmTZ212DpaJJ9PApdWC13QATNzwaqf4ERoMFAaZb
 0000:29AC       _D6PL8tRJ10OmlO6wmTZ216T33ey1Z0pY6p5QKo5_ctorMFZC6PL8tRJ10OmlO6wmTZ216T33ey1Z0pY6p5QKo
 0000:29C8       _D6PL8tRJ10OmlO6wmTZ214IyKziRcqroDxVu4WaHNMFZPS6PL8tRJ21TVpg3HUXi7OJv35xWEicq8FPp_tQb3
 0000:29D8       _D6PL8tRJ10OmlO6wmTZ214IyKziRcqroDxVu7MWSnHZ4MFZi
 0000:29E8       _D6PL8tRJ10OmlO6wmTZ214IyKziRcqroDxVu13Jbt5TpPgSnIq4MFZE6PL8tRJ10OmlO6wmTZ213Hk3hHUF6rnXna
 0000:2A00       _D6PL8tRJ10OmlO6wmTZ214IyKziRcqroDxVu8toStringMFZAa
 0000:2A1C       _D6PL8tRJ10OmlO6wmTZ215RWLFi9dIZjVWEdP4WaHNMFZPS6PL8tRJ21TVpg3HUXi7OJv35xWEicq8FPp_tQb3
 0000:2A2C       _D6PL8tRJ10OmlO6wmTZ215RWLFi9dIZjVWEdP7MWSnHZ4MFZi
 0000:2A3C       _D6PL8tRJ10OmlO6wmTZ215RWLFi9dIZjVWEdP5_ctorMFZC6PL8tRJ10OmlO6wmTZ215RWLFi9dIZjVWEdP
 0000:2A48       _D6PL8tRJ10OmlO6wmTZ215RWLFi9dIZjVWEdP13Jbt5TpPgSnIq4MFZE6PL8tRJ10OmlO6wmTZ213Hk3hHUF6rnXna
 0000:2A60       _D6PL8tRJ10OmlO6wmTZ215RWLFi9dIZjVWEdP4JIpPMFZt
 0000:2A80       _D6PL8tRJ10OmlO6wmTZ215RWLFi9dIZjVWEdP4N1FjMFZk
 0000:2A9C       _D6PL8tRJ10OmlO6wmTZ215RWLFi9dIZjVWEdP5_ctorMFAaZC6PL8tRJ10OmlO6wmTZ215RWLFi9dIZjVWEdP
 0000:2AAC       _D6PL8tRJ10OmlO6wmTZ215RWLFi9dIZjVWEdP5_ctorMFkZC6PL8tRJ10OmlO6wmTZ215RWLFi9dIZjVWEdP
 0000:2ABC       _D6PL8tRJ10OmlO6wmTZ215RWLFi9dIZjVWEdP5_ctorMFtZC6PL8tRJ10OmlO6wmTZ215RWLFi9dIZjVWEdP
 0000:2ACC       _D6PL8tRJ10OmlO6wmTZ215RWLFi9dIZjVWEdP12Az2MpootjS2vMFZAa
 0000:2AF0       _D6PL8tRJ10OmlO6wmTZ215RWLFi9dIZjVWEdP12Qtd7r50eLKMGMFZAa
 0000:2B10       _D6PL8tRJ10OmlO6wmTZ215RWLFi9dIZjVWEdP8toStringMFZAa
 0000:2B2C       _D6PL8tRJ10OmlO6wmTZ215RWLFi9dIZjVWEdP5QdudrFAaZk
 0000:2B48       _D6PL8tRJ10OmlO6wmTZ221RngQluqPAqhIN30tU_Y5e5_ctorMFiZC6PL8tRJ10OmlO6wmTZ221RngQluqPAqhIN30tU_Y5e
 0000:2B68       _D6PL8tRJ10OmlO6wmTZ29ZtcU2D9mO5Gg2ffMFZk
 0000:2B78       _D6PL8tRJ10OmlO6wmTZ29ZtcU2D9mO5_ctorMFkZC6PL8tRJ10OmlO6wmTZ29ZtcU2D9mO
 0000:2B88       _D6PL8tRJ10OmlO6wmTZ29ZtcU2D9mO5_ctorMFZC6PL8tRJ10OmlO6wmTZ29ZtcU2D9mO
 0000:2B94       _D6PL8tRJ10OmlO6wmTZ29ZtcU2D9mO5P88U6MFZv
 0000:2BA8       _D6PL8tRJ10OmlO6wmTZ29ZtcU2D9mO3KMNMFT6PL8tRJ10OmlO6wmTZ28YDkaikWmZv
 0000:2BC4       _D6PL8tRJ10OmlO6wmTZ29ZtcU2D9mO3KMNMFT6PL8tRJ10OmlO6wmTZ28YDkaikWmZv9__requireMFZv
 0000:2BD0       _D6PL8tRJ10OmlO6wmTZ29ZtcU2D9mO3KMNMFZv
 0000:2BE4       _D6PL8tRJ10OmlO6wmTZ29ZtcU2D9mO6Cw4UF9MFZv
 0000:2BF8       _D6PL8tRJ10OmlO6wmTZ29ZtcU2D9mO6Cw4UF9MFC6PL8tRJ10OmlO6wmTZ26YaxccjZv
 0000:2C0C       _D6PL8tRJ10OmlO6wmTZ29ZtcU2D9mO5Z4RCQMFT6PL8tRJ10OmlO6wmTZ28YDkaikWmZi
 0000:2C30       _D6PL8tRJ10OmlO6wmTZ29ZtcU2D9mO5Z4RCQMFC6PL8tRJ10OmlO6wmTZ26YaxccjZi
 0000:2C54       _D6PL8tRJ10OmlO6wmTZ29ZtcU2D9mO3G8sMFZk
 0000:2C6C       _D6PL8tRJ10OmlO6wmTZ29ZtcU2D9mO8QrVRKU9BMFZPS6PL8tRJ21TVpg3HUXi7OJv35xWEicq6IuZEzp
 0000:2C84       _D6PL8tRJ10OmlO6wmTZ29ZtcU2D9mO7JVTr16RMFZi
 0000:2CA0       _D6PL8tRJ10OmlO6wmTZ26Yaxccj5_ctorMFZC6PL8tRJ10OmlO6wmTZ26Yaxccj
 0000:2CAC       _D6PL8tRJ10OmlO6wmTZ26Yaxccj5_ctorMFE6PL8tRJ10OmlO6wmTZ212OfOTpgfA9ismZC6PL8tRJ10OmlO6wmTZ26Yaxccj
 0000:2CBC       _D6PL8tRJ10OmlO6wmTZ26Yaxccj5_ctorMFE6PL8tRJ10OmlO6wmTZ210PBrTCy3VAPZC6PL8tRJ10OmlO6wmTZ26Yaxccj
 0000:2CCC       _D6PL8tRJ10OmlO6wmTZ26Yaxccj5_ctorMFAaZC6PL8tRJ10OmlO6wmTZ26Yaxccj
 0000:2CDC       _D6PL8tRJ10OmlO6wmTZ26Yaxccj5_dtorMFZv
 0000:2CE8       _D6PL8tRJ10OmlO6wmTZ26Yaxccj6RjaccjMFZT6PL8tRJ10OmlO6wmTZ28YDkaikWm
 0000:2D00       _D6PL8tRJ10OmlO6wmTZ26Yaxccj8QUzY2U08MFZb
 0000:2D18       _D6PL8tRJ10OmlO6wmTZ26Yaxccj8QUzY2U08MFbZv
 0000:2D2C       _D6PL8tRJ10OmlO6wmTZ26Yaxccj13Jbt5TpPgSnIq4MFZE6PL8tRJ10OmlO6wmTZ213Hk3hHUF6rnXna
 0000:2D44       _D6PL8tRJ10OmlO6wmTZ26Yaxccj7DH2BvDKMFZb
 0000:2D84       _D6PL8tRJ10OmlO6wmTZ26Yaxccj4bindMFZv
 0000:2D98       _D6PL8tRJ10OmlO6wmTZ26Yaxccj7QXBe2HtMFZv
 0000:2DAC       _D6PL8tRJ10OmlO6wmTZ26Yaxccj6MTQOz5MFZv
 0000:2DC0       _D6PL8tRJ10OmlO6wmTZ26Yaxccj9UU4g6Q5CBMFZC6PL8tRJ10OmlO6wmTZ26Yaxccj
 0000:2DE0       _D6PL8tRJ10OmlO6wmTZ26Yaxccj6Vrbb91MFZC6PL8tRJ10OmlO6wmTZ26Yaxccj
 0000:2DF8       _D6PL8tRJ10OmlO6wmTZ26Yaxccj8GaQI72BBMFZv
 0000:2E0C       _D6PL8tRJ10OmlO6wmTZ26Yaxccj6K3JlKYFZv
 0000:2E14       _D6PL8tRJ10OmlO6wmTZ26Yaxccj5WdoHJMFZv
 0000:2E28       _D6PL8tRJ10OmlO6wmTZ26Yaxccj15JR6CF0QXNFsKOBEMFZC6PL8tRJ10OmlO6wmTZ27DkkGeNj
 0000:2E38       _D6PL8tRJ10OmlO6wmTZ26Yaxccj8SLWgKWelFZAa
 0000:2E54       _D6PL8tRJ10OmlO6wmTZ26Yaxccj13Cqxk2uLAIns9xMFZC6PL8tRJ10OmlO6wmTZ27DkkGeNj
 0000:2E70       _D6PL8tRJ10OmlO6wmTZ26Yaxccj12H9GVqjRUfoyFMFZC6PL8tRJ10OmlO6wmTZ27DkkGeNj
 0000:2E8C       _D6PL8tRJ10OmlO6wmTZ26Yaxccj4UL0qMFAvE6PL8tRJ10OmlO6wmTZ211F2wnED8pGtBZi
 0000:2EB8       _D6PL8tRJ10OmlO6wmTZ26Yaxccj4UL0qMFAvZi
 0000:2EDC       _D6PL8tRJ10OmlO6wmTZ26Yaxccj6VIEHQzMFAvE6PL8tRJ10OmlO6wmTZ211F2wnED8pGtBC6PL8tRJ10OmlO6wmTZ27DkkGeNjZi
 0000:2F10       _D6PL8tRJ10OmlO6wmTZ26Yaxccj6VIEHQzMFAvC6PL8tRJ10OmlO6wmTZ27DkkGeNjZi
 0000:2F34       _D6PL8tRJ10OmlO6wmTZ26Yaxccj6VIEHQzMFAvE6PL8tRJ10OmlO6wmTZ211F2wnED8pGtBZi
 0000:2F64       _D6PL8tRJ10OmlO6wmTZ26Yaxccj6VIEHQzMFAvZi
 0000:2F88       _D6PL8tRJ10OmlO6wmTZ26Yaxccj7KhAAvB4MFAvE6PL8tRJ10OmlO6wmTZ211F2wnED8pGtBZi
 0000:2FB4       _D6PL8tRJ10OmlO6wmTZ26Yaxccj7KhAAvB4MFAvZi
 0000:2FD8       _D6PL8tRJ10OmlO6wmTZ26Yaxccj11OpBKorYZmUbMFAvE6PL8tRJ10OmlO6wmTZ211F2wnED8pGtBJC6PL8tRJ10OmlO6wmTZ27DkkGeNjZi
 0000:3024       _D6PL8tRJ10OmlO6wmTZ26Yaxccj11OpBKorYZmUbMFAvJC6PL8tRJ10OmlO6wmTZ27DkkGeNjZi
 0000:3054       _D6PL8tRJ10OmlO6wmTZ26Yaxccj11OpBKorYZmUbMFAvE6PL8tRJ10OmlO6wmTZ211F2wnED8pGtBZi
 0000:3084       _D6PL8tRJ10OmlO6wmTZ26Yaxccj11OpBKorYZmUbMFAvZi
 0000:30A8       _D6PL8tRJ10OmlO6wmTZ26Yaxccj9B6tJQ4rVnMFE6PL8tRJ10OmlO6wmTZ217CeKs_0R6L4Q1AqC6EE6PL8tRJ10OmlO6wmTZ212HyC1nONSw8aPAvZi
 0000:30C4       _D6PL8tRJ10OmlO6wmTZ26Yaxccj9B6tJQ4rVnMFE6PL8tRJ10OmlO6wmTZ217CeKs_0R6L4Q1AqC6EE6PL8tRJ10OmlO6wmTZ212HyC1nONSw8aPJiZi
 0000:310C       _D6PL8tRJ10OmlO6wmTZ26Yaxccj9B6tJQ4rVnMFEÄìß17CeKs_0R6L4Q1AqC6EÄïß2HyC1nONSw8aPJSÄîÒFVqUdWZi
 0000:3144       _D6PL8tRJ10OmlO6wmTZ26Yaxccj9CdZvogUaaMFZv
 0000:3158       _D6PL8tRJ10OmlO6wmTZ26Yaxccj9CdZvogUaaMFiZv
 0000:316C       _D6PL8tRJ10OmlO6wmTZ26Yaxccj9CdZvogUaaMFS6PL8tRJ10OmlO6wmTZ26FVqUdWZv
 0000:3180       _D6PL8tRJ10OmlO6wmTZ26Yaxccj6ZqUoNzFCÄì£9ZtcU2D9mOÄûûÄûûPSÄìü7ZJtA30SZi
 0000:3190       _D6PL8tRJ10OmlO6wmTZ26Yaxccj6ZqUoNzFCÄì£9ZtcU2D9mOÄûûÄûûiZi
 0000:31B0       _D6PL8tRJ10OmlO6wmTZ26Yaxccj6ZqUoNzFC6PL8tRJ10OmlO6wmTZ29ZtcU2D9mOC6PL8tRJ10OmlO6wmTZ29ZtcU2D9mOC6PL8tRJ10OmlO6wmTZ29ZtcU2D9mOZi
 0000:31C8       _D6PL8tRJ10OmlO6wmTZ29HnH9zWNqz5_ctorMFE6PL8tRJ10OmlO6wmTZ213Hk3hHUF6rnXnaZC6PL8tRJ10OmlO6wmTZ29HnH9zWNqz
 0000:31E0       _D6PL8tRJ10OmlO6wmTZ29HnH9zWNqz5_ctorMFZC6PL8tRJ10OmlO6wmTZ29HnH9zWNqz
 0000:31F4       _D6PL8tRJ10OmlO6wmTZ29HnH9zWNqz5_ctorMFC6PL8tRJ10OmlO6wmTZ27DkkGeNjZC6PL8tRJ10OmlO6wmTZ29HnH9zWNqz
 0000:320C       _D6PL8tRJ10OmlO6wmTZ29GaH8HdxRF5_ctorMFE6PL8tRJ10OmlO6wmTZ213Hk3hHUF6rnXnaZC6PL8tRJ10OmlO6wmTZ29GaH8HdxRF
 0000:3224       _D6PL8tRJ10OmlO6wmTZ29GaH8HdxRF5_ctorMFZC6PL8tRJ10OmlO6wmTZ29GaH8HdxRF
 0000:3238       __D6PL8tRJ10OmlO6wmTZ29__modctorFZv
 0000:3244       __D6PL8tRJ10OmlO6wmTZ29__moddtorFZv
 0000:3250       _D6PL8tRJ21TVpg3HUXi7OJv35xWEicq6EgUZcJFZv
 0000:3258       _D6PL8tRJ21TVpg3HUXi7OJv35xWEicq8Ks8qcOdqFkPS6PL8tRJ21TVpg3HUXi7OJv35xWEicq6IuZEzpZi
 0000:3268       _D6PL8tRJ21TVpg3HUXi7OJv35xWEicq6IAZidbFZv
 0000:3270       _D6PL8tRJ21TVpg3HUXi7OJv35xWEicq7ZWP2CiXFZv
 0000:3278       _D6PL8tRJ21TVpg3HUXi7OJv35xWEicq5Ju3FLFtZt
 0000:3288       _D6PL8tRJ21TVpg3HUXi7OJv35xWEicq5NHAYUFkZk
 0000:3298       _D6PL8tRJ21TVpg3HUXi7OJv35xWEicq5V5U5MFtZt
 0000:32AC       _D6PL8tRJ21TVpg3HUXi7OJv35xWEicq5SzpniFkZk
 0000:32C0       _D6PL8tRJ4SCve6V8eQAW11LSCyILakhEk5_ctorMFZC6PL8tRJ4SCve6V8eQAW11LSCyILakhEk
 0000:32CC       _D6PL8tRJ4SCve6V8eQAW11LSCyILakhEk5_ctorMFAaZC6PL8tRJ4SCve6V8eQAW11LSCyILakhEk
 0000:32DC       _D6PL8tRJ4SCve6V8eQAW11LSCyILakhEk5_dtorMFZv
 0000:32E8       _D6PL8tRJ4SCve6V8eQAW11LSCyILakhEk8NwsDVtYKMFZAa
 0000:3304       _D6PL8tRJ4SCve6V8eQAW11LSCyILakhEk8NwsDVtYKMFAaZv
 0000:3318       _D6PL8tRJ4SCve6V8eQAW11LSCyILakhEk4GzuaMFZAa
 0000:3368       _D6PL8tRJ4SCve6V8eQAW11LSCyILakhEk4GzuaMFAaZv
 0000:337C       _D6PL8tRJ4SCve6V8eQAW11LSCyILakhEk3GjWMFZAa
 0000:33D0       _D6PL8tRJ4SCve6V8eQAW11LSCyILakhEk9PvGikCY6QMFZAa
 0000:33EC       _D6PL8tRJ4SCve6V8eQAW11LSCyILakhEk9HDYeJQvw4MFZt
 0000:3404       _D6PL8tRJ4SCve6V8eQAW12Nd4PsjPBdmpz5_ctorMFZC6PL8tRJ4SCve6V8eQAW12Nd4PsjPBdmpz
 0000:3410       _D6PL8tRJ4SCve6V8eQAW12Nd4PsjPBdmpz5_dtorMFZv
 0000:341C       _D6PL8tRJ4SCve6V8eQAW12Nd4PsjPBdmpz16BCmhv2voBJ7O2_Z9FE6PL8tRJ4SCve6V8eQAW14HwC6ax58bnXVraZAa
 0000:343C       _D6PL8tRJ4SCve6V8eQAW12Nd4PsjPBdmpz10Em8ezUgIThMFZC6PL8tRJ4UVkL4UVkL
 0000:3450       _D6PL8tRJ4SCve6V8eQAW12Nd4PsjPBdmpz10IOG_xGNd99MFZv
 0000:3464       _D6PL8tRJ4SCve6V8eQAW12Nd4PsjPBdmpz8SOjEQLfWMFZv
 0000:3478       _D6PL8tRJ4SCve6V8eQAW13Ugyo1hRFwLgyCFAaZAAa
 0000:3504       _D6PL8tRJ4SCve6V8eQAW13Ugyo1hRFwLgyCFAaZAAa4Uytd5DnqtbMFZi
 0000:3538       _D6PL8tRJ4SCve6V8eQAW13Ugyo1hRFwLgyCFAaZAAa4Uytd6opCallFAaZS6PL8tRJ4SCve6V8eQAW13Ugyo1hRFwLgyCFAaZAAa4Uytd
 0000:354C       _D6PL8tRJ4SCve6V8eQAW18HcRx6L48dIxPtROcVfFZAa
 0000:355C       _D6PL8tRJ4SCve6V8eQAW18BPZKuIu2GRF1M_5sxaFZAa
 0000:356C       _D6PL8tRJ4SCve6V8eQAW19GaBLgBcppvTLmNILleSFZHAaAa
 0000:3578       _D6PL8tRJ4SCve6V8eQAW8GOEPhNuPFlZAa
 0000:3594       _D6PL8tRJ4SCve6V8eQAW14RBDxxsSLJ_ozqfFAaZl
 0000:35B8       _D6PL8tRJ4SCve6V8eQAW7__arrayZ
 0000:35D4       _D6PL8tRJ4KN8D5crc32FZk
 0000:35E4       _D6PL8tRJ4KN8D8SOjEQLfWFC6PL8tRJ4UVkL4UVkLZC6PL8tRJ4UVkL4UVkL
 0000:364C       _D6PL8tRJ4KN8D10RjrPsze9T4FC6PL8tRJ4UVkL4UVkLZC6PL8tRJ4UVkL4UVkL
 0000:3660       _D6PL8tRJ4U7NC13L1Icn66DY7CCJ5_ctorMFZC6PL8tRJ4U7NC13L1Icn66DY7CCJ
 0000:367C       _D6PL8tRJ4U7NC7adler32FkAvZk
 0000:3694       _D6PL8tRJ4U7NC5crc32FkAvZk
 0000:36AC       _D6PL8tRJ4U7NC8SOjEQLfWFC6PL8tRJ4UVkL4UVkLiZC6PL8tRJ4UVkL4UVkL
 0000:36BC       _D6PL8tRJ4U7NC8SOjEQLfWFC6PL8tRJ4UVkL4UVkLZC6PL8tRJ4UVkL4UVkL
 0000:36D4       _D6PL8tRJ4U7NC10RjrPsze9T4FC6PL8tRJ4UVkL4UVkLZC6PL8tRJ4UVkL4UVkL
 0000:36E8       _D6PL8tRJ4U7NC8LrOc4J0V5_ctorMFZC6PL8tRJ4U7NC8LrOc4J0V
 0000:36F4       _D6PL8tRJ4U7NC8LrOc4J0V5_dtorMFZv
 0000:3700       _D6PL8tRJ4U7NC8LrOc4J0V8SOjEQLfWMFZC6PL8tRJ4UVkL4UVkL
 0000:3718       _D6PL8tRJ4U7NC8LrOc4J0V5GrSy_MFZC6PL8tRJ4UVkL4UVkL
 0000:374C       _D6PL8tRJ4U7NC8LrOc4J0V5GrSy_MFZC6PL8tRJ4UVkL4UVkL9__requireMFZv
 0000:3758       _D6PL8tRJ4U7NC10CShi9fdEHC5J546GMFZv
 0000:376C       _D6PL8tRJ4U7NC10CShi9fdEHC5_ctorMFkZC6PL8tRJ4U7NC10CShi9fdEHC
 0000:377C       _D6PL8tRJ4U7NC10CShi9fdEHC5_ctorMFZC6PL8tRJ4U7NC10CShi9fdEHC
 0000:3788       _D6PL8tRJ4U7NC10CShi9fdEHC5_dtorMFZv
 0000:3794       _D6PL8tRJ4U7NC10CShi9fdEHC10RjrPsze9T4MFZC6PL8tRJ4UVkL4UVkL
 0000:37B4       _D6PL8tRJ4U7NC10CShi9fdEHC10RjrPsze9T4MFZC6PL8tRJ4UVkL4UVkL9__requireMFZv
 0000:37C0       _D6PL8tRJ4U7NC10CShi9fdEHC5GrSy_MFZC6PL8tRJ4UVkL4UVkL
 0000:37F0       _D6PL8tRJ4U7NC10CShi9fdEHC5GrSy_MFZC6PL8tRJ4UVkL4UVkL9__requireMFZv
 0000:37FC       _D6PL8tRJ4U7NC10CShi9fdEHC5GrSy_MFZC6PL8tRJ4UVkL4UVkL8__ensureMFKC6PL8tRJ4UVkL4UVkLZv
 0000:3808       _D6PL8tRJ4U7NC16IrxQ0oM8iZ6855c45J546GMFZv
 0000:381C       _D6PL8tRJ4U7NC16IrxQ0oM8iZ6855c45_ctorMFZC6PL8tRJ4U7NC16IrxQ0oM8iZ6855c4
 0000:3828       _D6PL8tRJ4U7NC16IrxQ0oM8iZ6855c45_dtorMFZv
 0000:3834       _D6PL8tRJ4U7NC16IrxQ0oM8iZ6855c410RjrPsze9T4MFZb
 0000:3850       _D6PL8tRJ4U7NC16IrxQ0oM8iZ6855c410RjrPsze9T4MFZb9__requireMFZv
 0000:385C       _D6PL8tRJ4U7NC8__assertFiZv
 0000:3878       _D6PL8tRJ4SCve10S4lHH6gZNI14DEbkdp_8fRzMXX5_dtorMFZv
 0000:3884       _D6PL8tRJ4SCve10S4lHH6gZNI14DEbkdp_8fRzMXX9DM4TkSJhnMFZv
 0000:3898       _D6PL8tRJ4SCve10S4lHH6gZNI14DEbkdp_8fRzMXX8UkxH3uX8MFZC6PL8tRJ4SCve10S4lHH6gZNI14DEbkdp_8fRzMXX
 0000:38AC       _D6PL8tRJ4SCve10S4lHH6gZNI14DEbkdp_8fRzMXX9S0PmyzukxMFAaZC6PL8tRJ4SCve10S4lHH6gZNI14DEbkdp_8fRzMXX
 0000:38C8       _D6PL8tRJ4SCve10S4lHH6gZNI14DEbkdp_8fRzMXX9S0PmyzukxMFZC6PL8tRJ4SCve10S4lHH6gZNI14DEbkdp_8fRzMXX
 0000:38DC       _D6PL8tRJ4SCve10S4lHH6gZNI14DEbkdp_8fRzMXX9ViWmTXAgiMFZC6PL8tRJ4SCve10S4lHH6gZNI14DEbkdp_8fRzMXX
 0000:38F0       _D6PL8tRJ4SCve10S4lHH6gZNI14DEbkdp_8fRzMXX12HMdN_NACWAJZFAaHAaAaZAa
 0000:390C       _D6PL8tRJ4SCve10S4lHH6gZNI14DEbkdp_8fRzMXX13GvcMeGjSyG4N5FAaHAaAaZAa
 0000:3968       _D6PL8tRJ4SCve10S4lHH6gZNI14DEbkdp_8fRzMXX17QSCbRI1soUeeXY1sAMFZv
 0000:397C       _D6PL8tRJ4SCve10S4lHH6gZNI14DEbkdp_8fRzMXX9Onfy2jvTxMFZv
 0000:3990       _D6PL8tRJ4SCve10S4lHH6gZNI14DEbkdp_8fRzMXX20KDBDJIn7JXgRdldu3SR3FE6PL8tRJ4SCve6V8eQAW14HwC6ax58bnXVraZAa
 0000:39B0       _D6PL8tRJ4SCve10S4lHH6gZNI14DEbkdp_8fRzMXX10RAdCNF2OgbMFZC6PL8tRJ4SCve10S4lHH6gZNI14DEbkdp_8fRzMXX
 0000:39C4       _D6PL8tRJ4SCve10S4lHH6gZNI14DEbkdp_8fRzMXX10En1dGiP4pjMFZv
 0000:39D8       _D6PL8tRJ4SCve10S4lHH6gZNI14DEbkdp_8fRzMXX12JOqnqkxLFXxqMFZv
 0000:39EC       _D6PL8tRJ4SCve10S4lHH6gZNI14DEbkdp_8fRzMXX5_ctorMFZC6PL8tRJ4SCve10S4lHH6gZNI14DEbkdp_8fRzMXX
 0000:3A00       _D6PL8tRJ4SCve4DobM144__T6SyjXG1TS8mainfile3Fzo9YhNRZAzZrMFC6PL8tRJ4SCve6V8eQAW11LSCyILakhEkC6PLA5FF6C1202919893B69C6A2872C212F5
 0000:3A88       _D6PL8tRJ4SCve4DobM37__T6SyjXG1TAS8mainfile12SWhnfUrJKQ7nZ6SyjXG1FAS8mainfile12SWhnfUrJKQ7nZAa
 0000:3A9C       _D6PL8tRJ4SCve4DobM155__T6SyjXG1TS8mainfile3Fzo9YhNRZAzZrMFC6PL8tRJ4SCve6V8eQAW11LSCyILakhEkC6PLFBAEB96A8ADC8A9FB22A41E3966F352B
 0000:3B58       _D6PL8tRJ4SCve4DobM157__T6SyjXG1TS8mainfile3Fzo9YhNRZAzZrMFC6PL8tRJ4SCve6V8eQAW11LSCyILakhEkC6PL73057F9B00C711E57DD0E0328E8682C1
 0000:3B94       _D6PL8tRJ4SCve4DobM15__T6SyjXG1TG2aZ6SyjXG1FG2aZAa
 0000:3BC8       _D6PL8tRJ4SCve4DobM143__T6SyjXG1TS8mainfile3Fzo9YhNRZAzZrMFC6PL8tRJ4SCve6V8eQAW11LSCyILakhEkC6PLA15176A6A8C27F931AA981AECE8D3EFA
 0000:3C9C       _D6PL8tRJ4SCve4DobM149__T6SyjXG1TS8mainfile3Fzo9YhNRZAzZrMFC6PL8tRJ4SCve6V8eQAW11LSCyILakhEkC6PLEA7F7859E77DD4745333C24C51E8D25C
 0000:3CD8       _D6PL8tRJ4SCve4DobM10MReeZuNVi84UbUwMFZa
 0000:3D30       _D6PL8tRJ4SCve4DobM10MReeZuNVi85LT3jIMFZAa
 0000:3D68       _D6PL8tRJ4SCve4DobM10MReeZuNVi84NNu3MFZa
 0000:3DC4       _D6PL8tRJ4SCve4DobM10MReeZuNVi814XutuJCzXsSe6V5MFZv
 0000:3DF4       _D6PL8tRJ4SCve4DobM10MReeZuNVi86ZDPj8mMFaZv
 0000:3E64       _D6PL8tRJ4SCve4DobM10MReeZuNVi810FtEmQuKuHuMFZAa
 0000:3E9C       _D6PL8tRJ4SCve4DobM10MReeZuNVi88WGW4ZuXjMFZb
 0000:3ECC       _D6PL8tRJ4SCve4DobM148__T6SyjXG1TAS8mainfile3Fzo9YhNRZAzZrMFC6PL8tRJ4SCve6V8eQAW11LSCyILakhEkC6PB0CF8E3785A51282C3E6925E004B7270
 0000:3EE0       _D6PL8tRJ4SCve4DobM147__T6SyjXG1TS8mainfile3Fzo9YhNRZAzZrMFC6PL8tRJ4SCve6V8eQAW11LSCyILakhEkC6PL5D57F60A5824BF4D1F27BF0671C06369
 0000:3F90       _D6PL8tRJ4SCve4DobM13__T6SyjXG1TiZ6SyjXG1FiZAa
 0000:3FA4       _D6PL8tRJ4SCve4DobM13__T6SyjXG1TbZ6SyjXG1FbZAa
 0000:3FB8       _D6PL8tRJ4SCve4DobM36__T6SyjXG1TS8mainfile12SWhnfUrJKQ7nZ6SyjXG1FS8mainfile12SWhnfUrJKQ7nZAa
 0000:4040       _D6PL8tRJ4SCve4DobM37__T6SyjXG1TS7WrsbrqT14BP8X5RPsfAmCkRZ6SyjXG1FS7WrsbrqT14BP8X5RPsfAmCkRZAa
 0000:40C8       _D6PL8tRJ4SCve4DobM14__T6SyjXG1TAhZ6SyjXG1FAhZAa
 0000:40DC       _D6PL8tRJ4SCve4DobM13__T6SyjXG1ThZ6SyjXG1FhZAa
 0000:40F0       _D6PL8tRJ4SCve4DobM13__T6SyjXG1TmZ6SyjXG1FmZAa
 0000:4104       _D6PL8tRJ4SCve4DobM19__T10N5VUVo8_2fVb1Z10N5VUVo8_2fFAaZAa
 0000:4118       _D6PL8tRJ4SCve4DobM19__T10N5VUVo8_2fVb1Z10N5VUVo8_2fFAaZAa16__foreachbody182MFKwZi
 0000:419C       _D6PL8tRJ4SCve4DobM19__T10N5VUVo8_2fVb0Z10N5VUVo8_2fFAaZAa
 0000:41B0       _D6PL8tRJ4SCve4DobM13__T6SyjXG1TaZ6SyjXG1FaZAa
 0000:41C4       _D6PL8tRJ4SCve4DobM29__T6SyjXG1TS7gcstats7GCStatsZ6SyjXG1FS7gcstats7GCStatsZAa
 0000:430C       _D6PL8tRJ4SCve4DobM13__T6SyjXG1TkZ6SyjXG1FkZAa
 0000:4320       _D6PL8tRJ4SCve4DobM15__T6SyjXG1TAAaZ6SyjXG1FAAaZAa
 0000:4334       _D6PL8tRJ4SCve4DobM14__T6SyjXG1TAaZ6SyjXG1FAaZAa
 0000:4364       _D6PL8tRJ4SCve4DobM7__arrayZ
 0000:4380       _D6PL8tRJ4SCve6S9FDhs10Jwa30kxluS9C_RooF5OlMFZv
 0000:4408       _D6PL8tRJ4SCve6S9FDhs10Jwa30kxluS9C_RooF5OlMFZv16__foreachbody188MFKAaKAaZi
 0000:4478       _D6PL8tRJ4SCve6S9FDhs10Jwa30kxluS12D1gt6wt8N6lRMFZv
 0000:4484       _D6PL8tRJ4SCve6S9FDhs10Jwa30kxluS5_ctorMFZC6PL8tRJ4SCve6S9FDhs10Jwa30kxluS
 0000:4490       _D6PL8tRJ4SCve6S9FDhs10Jwa30kxluS5_dtorMFZv
 0000:449C       _D6PL8tRJ4SCve6S9FDhs10Jwa30kxluS7SqFRCMPMFZv
 0000:44B0       _D6PL8tRJ4SCve6S9FDhs10Jwa30kxluS9ZVCM29taEMFZb
 0000:44D0       _D6PL8tRJ7W6oQinE10RSPtdHssoiFlZAa
 0000:4528       _D6PL8tRJ7W6oQinE18LBiTUnQHtcuOANhvhjFZl
 0000:4548       _D6PL8tRJ7W6oQinE6GPnbOC5_ctorMFAaZC6PL8tRJ7W6oQinE6GPnbOC
 0000:4558       _D6PL8tRJ7W6oQinE6GPnbOC6NJtr_HMFAaZv
 0000:456C       _D6PL8tRJ7W6oQinE6GPnbOC5WdoHJMFZv
 0000:4580       _D6PL8tRJ7W6oQinE6GPnbOC4VeuWMFZv
 0000:458C       _D6PL8tRJ7W6oQinE6GPnbOC6XsuAYiMFZv
 0000:4598       _D6PL8tRJ7W6oQinE13HuhKpbLkFJjhg5_ctorMFAabZC6PL8tRJ7W6oQinE13HuhKpbLkFJjhg
 0000:45B4       _D6PL8tRJ7W6oQinE13HuhKpbLkFJjhg3PnmMFAaZC6PL8tRJ7W6oQinE6GPnbOC
 0000:45CC       _D6PL8tRJ7W6oQinE13HuhKpbLkFJjhg4VeuWMFZv
 0000:4670       _D6PL8tRJ7W6oQinE13HuhKpbLkFJjhg6XsuAYiMFZv
 0000:467C       _D6PL8tRJ7W6oQinE10D4sXFrbfoO5_ctorMFZC6PL8tRJ7W6oQinE10D4sXFrbfoO
 0000:469C       _D6PL8tRJ7W6oQinE10D4sXFrbfoO3PnmMFAaZC6PL8tRJ7W6oQinE6GPnbOC
 0000:46B4       _D6PL8tRJ7W6oQinE10D4sXFrbfoO5WdoHJMFZv
 0000:46C8       _D6PL8tRJ7W6oQinE10D4sXFrbfoO4VeuWMFZv
 0000:46D4       _D6PL8tRJ7W6oQinE10D4sXFrbfoO6XsuAYiMFZv
 0000:46E0       _D6PL8tRJ7W6oQinE13ZzoJiJ9vuPlip5_ctorMFZC6PL8tRJ7W6oQinE13ZzoJiJ9vuPlip
 0000:46FC       _D6PL8tRJ7W6oQinE13ZzoJiJ9vuPlip3PnmMFAaZC6PL8tRJ7W6oQinE6GPnbOC
 0000:4714       _D6PL8tRJ7W6oQinE11IWnw3IBZKxG5_ctorMFZC6PL8tRJ7W6oQinE11IWnw3IBZKxG
 0000:4754       _D6PL8tRJ7W6oQinE11IWnw3IBZKxG3PnmMFAaZC6PL8tRJ7W6oQinE6GPnbOC
 0000:476C       _D6PL8tRJ7W6oQinE11IWnw3IBZKxG6NJtr_HMFAaZv
 0000:4780       _D6PL8tRJ7W6oQinE11IWnw3IBZKxG5WdoHJMFZv
 0000:4794       _D6PL8tRJ7W6oQinE20Sjf10OGE3hXfL57LEzgc5_ctorMFZC6PL8tRJ7W6oQinE20Sjf10OGE3hXfL57LEzgc
 0000:47A8       _D7WrsbrqT4CnAz14F2Kt03VcQgbmgZMFE7WrsbrqT4CnAz5Jj_hYZk
 0000:47F8       _D7WrsbrqT4CnAz14Aj5qvjtu8vSfMQMFE7WrsbrqT4CnAz5Jj_hYZk
 0000:4830       _D7WrsbrqT4CnAz10KRyCzsRouUMFZk
 0000:4868       _D7WrsbrqT4CnAz4sizeMFZk
 0000:48A4       _D7WrsbrqT4CnAz8HzFkxqrIMFE7WrsbrqT4CnAz5Jj_hYZAv
 0000:48FC       _D7WrsbrqT4CnAz4MHEsMFZAh
 0000:4934       _D7WrsbrqT4CnAz6opCallFPS7WrsbrqT14BP8X5RPsfAmCkRAaZPS7WrsbrqT4CnAz
 0000:4980       _D7WrsbrqT8BlyrKiSeFmZPS7WrsbrqT4CnAz
 0000:4998       _D7WrsbrqT7OsTt0cOFPS7WrsbrqT4CnAzZm
 0000:49B4       _D7WrsbrqT14POmzsmGqvYSTt2FAaZk
 0000:4A08       _D7WrsbrqT9DA0KJZz3TFAaKS7WrsbrqT6ST3h97Zk
 0000:4A58       _D7WrsbrqT9DA0KJZz3TFAaAS7WrsbrqT16AP9WRE55rwuOLv5dZk
 0000:4A84       _D7WrsbrqT9DA0KJZz3TFAaAPS7WrsbrqT4CnAzZk
 0000:4AA0       _D7WrsbrqT20OSNxaXZQqCSosHQpHzRqFZAS7WrsbrqT14B3oepn1pP2G8Vu
 0000:4AD8       _D7WrsbrqT7DgIaPnSFAaAhZAh
 0000:4AE8       _D7WrsbrqT6NCMp4E3KMNMFAhZv
 0000:4B1C       _D7WrsbrqT9FmlH6gyuqFAaZC7WrsbrqT6NCMp4E
 0000:4B58       _D7WrsbrqT12YpO6yeDgt8PUFAaZAC7WrsbrqT6NCMp4E
 0000:4C10       _D7WrsbrqT14GOWwrd_SpWHP3_FAaC7WrsbrqT6NCMp4EkS7WrsbrqT14PGBeG2OG5VWVOHZAS7WrsbrqT13Q3LCZ_2zQGiCa
 0000:4C90       _D7WrsbrqT27__T18AyCOXnSHy1A4YqTKscVb0ZÄîòFCÄàª6NCMp4EÄêêÄêêAAakSÄàî14PGBeG2OG5VWVOHZAÄäõ3Q3LCZ_2zQGiCa
 0000:4CA4       _D7WrsbrqT7__arrayZ
 0000:0BFC       __imp__VirtualAlloc@16
 04CC:0000       _D8mainfile14JhcGTAWNYpsmH113JkqHMLwsZGazf6__initZ
 04CC:0040       _D8mainfile14JhcGTAWNYpsmH113JkqHMLwsZGazf7__ClassZ
 04CC:0090       _D8mainfile14JhcGTAWNYpsmH113JkqHMLwsZGazf6__vtblZ
 04CC:00B0       _D8mainfile14JhcGTAWNYpsmH16__initZ
 04CC:00E0       _D8mainfile14JhcGTAWNYpsmH17__ClassZ
 04CC:0130       _D8mainfile14JhcGTAWNYpsmH16__vtblZ
 04CC:0170       _D8mainfile15V3C8P_3Hb77mFyO9__enum1916__initZ
 04CC:01F0       _D8mainfile15V3C8P_3Hb77mFyO6__initZ
 04CC:0220       _D8mainfile15V3C8P_3Hb77mFyO7__ClassZ
 04CC:0270       _D8mainfile15V3C8P_3Hb77mFyO6__vtblZ
 04CC:02AC       _D8mainfile12KjIE8qFD6_J_9__enum1926__initZ
 04CC:02B0       _D8mainfile12KjIE8qFD6_J_6__initZ
 04CC:02E0       _D8mainfile12KjIE8qFD6_J_7__ClassZ
 04CC:0330       _D8mainfile12KjIE8qFD6_J_6__vtblZ
 04CC:0490       _D8mainfile3Fzo6__initZ
 04CC:04B0       _D8mainfile3Fzo7__ClassZ
 04CC:0500       _D8mainfile3Fzo6__vtblZ
 04CC:05C0       _D8mainfile12__ModuleInfoZ
 04CC:0630       _D50TypeInfo_C8mainfile14JhcGTAWNYpsmH113JkqHMLwsZGazf6__initZ
 04CC:0640       _D51TypeInfo_AC8mainfile14JhcGTAWNYpsmH113JkqHMLwsZGazf6__initZ
 04CC:0650       _D12TypeInfo_AAa6__initZ
 04CC:0660       _D35TypeInfo_C8mainfile14JhcGTAWNYpsmH16__initZ
 04CC:0670       _D33TypeInfo_S8mainfile12SWhnfUrJKQ7n6__initZ
 04CC:06C0       _D49TypeInfo_E8mainfile15V3C8P_3Hb77mFyO11__anonymous6__initZ
 04CC:06E0       _D36TypeInfo_C8mainfile15V3C8P_3Hb77mFyO6__initZ
 04CC:06F0       _D46TypeInfo_E8mainfile12KjIE8qFD6_J_11__anonymous6__initZ
 04CC:0710       _D33TypeInfo_C8mainfile12KjIE8qFD6_J_6__initZ
 04CC:0720       _D144TypeInfo_S8mainfile3Fzo9YhNRZAzZrMFC6PL8tRJ4SCve6V8eQAW11LSCyILakhEkC6PL8tRJ8YYSbXxao12SOq8rC3EC1C0C1A6FA60AE16D21BD8C4430B0
 04CC:0780       _D145TypeInfo_AS8mainfile3Fzo9YhNRZAzZrMFC6PL8tRJ4SCve6V8eQAW11LSCyILakhEkC6PL8tRJ8YYSbXxao12SOq87F3207F59FC7BF99D9064C25AC0E0483
 04CC:0790       _D34TypeInfo_AS8mainfile12SWhnfUrJKQ7n6__initZ
 04CC:07A0       _D12TypeInfo_AAh6__initZ
 04CC:07B0       _D152TypeInfo_S8mainfile3Fzo9YhNRZAzZrMFC6PL8tRJ4SCve6V8eQAW11LSCyILakhEkC6PL8tRJ8YYSbXxao12SOq8r41B9FDD5B7D78C5CA197005937815C84
 04CC:0810       _D154TypeInfo_S8mainfile3Fzo9YhNRZAzZrMFC6PL8tRJ4SCve6V8eQAW11LSCyILakhEkC6PL8tRJ8YYSbXxao12SOq8rD0F65681196F6747B850318C572D566E
 04CC:0870       _D141TypeInfo_S8mainfile3Fzo9YhNRZAzZrMFC6PL8tRJ4SCve6V8eQAW11LSCyILakhEkC6PL8tRJ8YYSbXxao12SOq8r3C0ABB7FAE692ED8B4EB33D539FBC7B5
 04CC:08C0       _D140TypeInfo_S8mainfile3Fzo9YhNRZAzZrMFC6PL8tRJ4SCve6V8eQAW11LSCyILakhEkC6PL8tRJ8YYSbXxao12SOq8r6BCE72BB16E6131DE6C91F522A1B5621
 04CC:0910       _D146TypeInfo_S8mainfile3Fzo9YhNRZAzZrMFC6PL8tRJ4SCve6V8eQAW11LSCyILakhEkC6PL8tRJ8YYSbXxao12SOq8r8EFAE750D1019BB43EA05704BE3354FF
 04CC:0970       _D23TypeInfo_C8mainfile3Fzo6__initZ
 04CC:0980       _D13TypeInfo_B2Aa6__initZ
 04CC:0990       _D16TypeInfo_B5AaAai6__initZ
 04CC:09A0       _D15TypeInfo_B4AaAa6__initZ
 04CC:09B0       _D11TypeInfo_B06__initZ
 04CC:09C0       _D13TypeInfo_B2ii6__initZ
 04CC:09D0       _D14TypeInfo_HAaAa6__initZ
 04CC:09E0       _D29TypeInfo_B17AaAaAaHAaAaAaAaAa6__initZ
 04CC:09F0       _D17TypeInfo_B6AaAaAh6__initZ
 04CC:0A00       _D18TypeInfo_B7AaAaAhm6__initZ
 04CC:0A48       _D6PL8tRJ4SCve6KzLZGz10YM9VdJR9vJ10IvEfmqD2YH6__initZ
 04CC:0A80       _D6PL8tRJ4SCve6KzLZGz10YM9VdJR9vJ10IvEfmqD2YH7__ClassZ
 04CC:0AD0       _D6PL8tRJ4SCve6KzLZGz10YM9VdJR9vJ10IvEfmqD2YH6__vtblZ
 04CC:0AFC       _D6PL8tRJ4SCve6KzLZGz10YM9VdJR9vJ6__initZ
 04CC:0B30       _D6PL8tRJ4SCve6KzLZGz10YM9VdJR9vJ7__ClassZ
 04CC:0B80       _D6PL8tRJ4SCve6KzLZGz10YM9VdJR9vJ6__vtblZ
 04CC:0BC0       _D6PL8tRJ4SCve6KzLZGz12__ModuleInfoZ
 04CC:0C10       _D53TypeInfo_C6PL8tRJ4SCve6KzLZGz10YM9VdJR9vJ10IvEfmqD2YH6__initZ
 04CC:0C20       _D41TypeInfo_C6PL8tRJ4SCve6KzLZGz10YM9VdJR9vJ6__initZ
 04CC:0C4C       _D6PL8tRJ8YYSbXxao9__enum1936__initZ
 04CC:0C50       _D6PL8tRJ8YYSbXxao9__enum1946__initZ
 04CC:0C54       _D6PL8tRJ8YYSbXxao10YRtIvqycaXi
 04CC:0C58       _D6PL8tRJ8YYSbXxao18CahECVPLqMjAm7_IQgi
 04CC:0C60       _D6PL8tRJ8YYSbXxao13JFI8ULUOXLUwP6__initZ
 04CC:0C90       _D6PL8tRJ8YYSbXxao13JFI8ULUOXLUwP7__ClassZ
 04CC:0CE0       _D6PL8tRJ8YYSbXxao13JFI8ULUOXLUwP6__vtblZ
 04CC:0D90       _D6PL8tRJ8YYSbXxao13Sj9asAviCk8sA6__initZ
 04CC:0DD0       _D6PL8tRJ8YYSbXxao13Sj9asAviCk8sA7__ClassZ
 04CC:0E20       _D6PL8tRJ8YYSbXxao13Sj9asAviCk8sA6__vtblZ
 04CC:0E50       _D6PL8tRJ8YYSbXxao12SOq8rVwHOGQR23AxJQMtdPyX9sqIq9XqunMW0G30a
 04CC:0E70       _D6PL8tRJ8YYSbXxao12SOq8rVwHOGQR6__initZ
 04CC:0EB0       _D6PL8tRJ8YYSbXxao12SOq8rVwHOGQR7__ClassZ
 04CC:0F00       _D6PL8tRJ8YYSbXxao12SOq8rVwHOGQR6__vtblZ
 04CC:0F40       _D6PL8tRJ8YYSbXxao18S6OzYzbrD9Ac2ODNXe6__initZ
 04CC:0F90       _D6PL8tRJ8YYSbXxao18S6OzYzbrD9Ac2ODNXe7__ClassZ
 04CC:0FE0       _D6PL8tRJ8YYSbXxao18S6OzYzbrD9Ac2ODNXe6__vtblZ
 04CC:1100       _D6PL8tRJ8YYSbXxao12__ModuleInfoZ
 04CC:1160       _D39TypeInfo_E6PL8tRJ8YYSbXxao11__anonymous6__initZ
 04CC:1180       _D41TypeInfo_S6PL8tRJ8YYSbXxao13MvpbcBn39p7yc6__initZ
 04CC:11D0       _D36TypeInfo_S6PL8tRJ8YYSbXxao9BJfKKwjMb6__initZ
 04CC:1220       _D42TypeInfo_AC6PL8tRJ8YYSbXxao13Sj9asAviCk8sA6__initZ
 04CC:1230       _D41TypeInfo_C6PL8tRJ8YYSbXxao13JFI8ULUOXLUwP6__initZ
 04CC:1240       _D42TypeInfo_E6PL8tRJ8YYSbXxao14CIqwuuHVVTAYGZ6__initZ
 04CC:1260       _D41TypeInfo_C6PL8tRJ8YYSbXxao13Sj9asAviCk8sA6__initZ
 04CC:1270       _D40TypeInfo_C6PL8tRJ8YYSbXxao12SOq8rVwHOGQR6__initZ
 04CC:1280       _D46TypeInfo_C6PL8tRJ8YYSbXxao18S6OzYzbrD9Ac2ODNXe6__initZ
 04CC:1290       _D6PL8tRJ8YYSbXxao57__T19W05uXgmxIE2FYC1XnP5TC6PL8tRJ8YYSbXxao12SOq8rVwHOGQRZ19W05uXgmxIE2FYC1XnP58E05eODO46__initZ
 04CC:12B0       _D115TypeInfo_C6PL8tRJ8YYSbXxao57__T19W05uXgmxIE2FYC1XnP5TC6PL8tRJ8YYSbXxao12SOq8rVwHOGQRZ19W05uXgmxIE2FYC1XnP58E05eODO46__initZ
 04CC:12C0       _D6PL8tRJ8YYSbXxao57__T19W05uXgmxIE2FYC1XnP5TC6PL8tRJ8YYSbXxao12SOq8rVwHOGQRZ19W05uXgmxIE2FYC1XnP58E05eODO47__ClassZ
 04CC:1310       _D6PL8tRJ8YYSbXxao57__T19W05uXgmxIE2FYC1XnP5TC6PL8tRJ8YYSbXxao12SOq8rVwHOGQRZ19W05uXgmxIE2FYC1XnP58E05eODO46__vtblZ
 04CC:1340       _D116TypeInfo_AC6PL8tRJ8YYSbXxao57__T19W05uXgmxIE2FYC1XnP5TC6PL8tRJ8YYSbXxao12SOq8rVwHOGQRZ19W05uXgmxIE2FYC1XnP58E05eODO46__initZ
 04CC:1350       _D6PL8tRJ8YYSbXxao57__T19W05uXgmxIE2FYC1XnP5TC6PL8tRJ8YYSbXxao12SOq8rVwHOGQRZ19W05uXgmxIE2FYC1XnP56__initZ
 04CC:1370       _D106TypeInfo_C6PL8tRJ8YYSbXxao57__T19W05uXgmxIE2FYC1XnP5TC6PL8tRJ8YYSbXxao12SOq8rVwHOGQRZ19W05uXgmxIE2FYC1XnP56__initZ
 04CC:1380       _D6PL8tRJ8YYSbXxao57__T19W05uXgmxIE2FYC1XnP5TC6PL8tRJ8YYSbXxao12SOq8rVwHOGQRZ19W05uXgmxIE2FYC1XnP57__ClassZ
 04CC:13D0       _D6PL8tRJ8YYSbXxao57__T19W05uXgmxIE2FYC1XnP5TC6PL8tRJ8YYSbXxao12SOq8rVwHOGQRZ19W05uXgmxIE2FYC1XnP56__vtblZ
 04CC:13F0       _D6PL8tRJ6VQL0re26WpK8cDpIQpKTezFdYWSL8cbV4Bl
 04CC:1450       _D6PL8tRJ6VQL0re5IY1n66__initZ
 04CC:1480       _D6PL8tRJ6VQL0re5IY1n67__ClassZ
 04CC:14D0       _D6PL8tRJ6VQL0re5IY1n66__vtblZ
 04CC:14F0       _D6PL8tRJ6VQL0re9U0813Zf5U6__initZ
 04CC:1530       _D6PL8tRJ6VQL0re9U0813Zf5U7__ClassZ
 04CC:1580       _D6PL8tRJ6VQL0re9U0813Zf5U6__vtblZ
 04CC:15B0       _D6PL8tRJ6VQL0re15ZW8ZKNwrOMTMoUg6__initZ
 04CC:15E0       _D6PL8tRJ6VQL0re15ZW8ZKNwrOMTMoUg7__ClassZ
 04CC:1630       _D6PL8tRJ6VQL0re15ZW8ZKNwrOMTMoUg6__vtblZ
 04CC:1670       _D6PL8tRJ6VQL0re15Q1mAkz4hVW7hZN111__InterfaceZ
 04CC:16F0       _D6PL8tRJ6VQL0re8Yuel3uMc6__initZ
 04CC:1710       _D6PL8tRJ6VQL0re8Yuel3uMc7__ClassZ
 04CC:1760       _D6PL8tRJ6VQL0re8Yuel3uMc6__vtblZ
 04CC:1920       _D6PL8tRJ6VQL0re12__ModuleInfoZ
 04CC:1980       _D30TypeInfo_C6PL8tRJ6VQL0re5IY1n66__initZ
 04CC:1990       _D34TypeInfo_C6PL8tRJ6VQL0re9U0813Zf5U6__initZ
 04CC:19A0       _D42TypeInfo_AC6PL8tRJ6VQL0re15Q1mAkz4hVW7hZN16__initZ
 04CC:19B0       _D41TypeInfo_C6PL8tRJ6VQL0re15ZW8ZKNwrOMTMoUg6__initZ
 04CC:19C0       _D41TypeInfo_C6PL8tRJ6VQL0re15Q1mAkz4hVW7hZN16__initZ
 04CC:19D0       _D32TypeInfo_S6PL8tRJ6VQL0re7A3br8kL6__initZ
 04CC:1A20       _D33TypeInfo_C6PL8tRJ6VQL0re8Yuel3uMc6__initZ
 04CC:1A30       _D17TypeInfo_B6AallAa6__initZ
 04CC:1A40       _D110TypeInfo_S3std4bind83__T5TupleTS3std4bind14__T6DynArgVi0Z6DynArgTS3std4bind14__T6DynArgVi1Z6DynArgTDFZvZ5Tuple6__initZ
 04CC:1AB0       _D3std4bind215__T9BoundFuncTDFC6PL8tRJ6VQL0re5IY1n6C6PL8tRJ6VQL0re9U0813Zf5UDFZvZvS41_D3std4bind76624A045C1A89BD68590B6068F8408B
 04CC:1AD0       _D247TypeInfo_C3std4bind215__T9BoundFuncTDFC6PL8tRJ6VQL0re5IY1n6C6PL8tRJ6VQL0re9U0813Zf5UDFZvZvS47965A53BAFC470DDE5F759B9B4D7D1E4
 04CC:1AE0       _D3std4bind215__T9BoundFuncTDFC6PL8tRJ6VQL0re5IY1n6C6PL8tRJ6VQL0re9U0813Zf5UDFZvZvS41_D3std4bindB46294F0464652BF8F394B164A9D6F24
 04CC:1B30       _D3std4bind215__T9BoundFuncTDFC6PL8tRJ6VQL0re5IY1n6C6PL8tRJ6VQL0re9U0813Zf5UDFZvZvS41_D3std4bindDE5614FC12AB4818D2285FCA567C5C0D
 04CC:1B50       _D90TypeInfo_S3std4bind63__T5TupleTC6PL8tRJ6VQL0re5IY1n6TC6PL8tRJ6VQL0re9U0813Zf5UTDFZvZ5Tuple6__initZ
 04CC:1BC0       _D37TypeInfo_S3std4bind10__T5TupleZ5Tuple6__initZ
 04CC:1C10       _D42TypeInfo_S3std4bind15__T5TupleTDFZvZ5Tuple6__initZ
 04CC:1C70       _D68TypeInfo_S3std4bind41__T5TupleTC6PL8tRJ6VQL0re9U0813Zf5UTDFZvZ5Tuple6__initZ
 04CC:1CE0       _D59TypeInfo_S3std4bind32__T5TupleTC6PL8tRJ6VQL0re5IY1n6Z5Tuple6__initZ
 04CC:1D30       _D63TypeInfo_S3std4bind36__T5TupleTC6PL8tRJ6VQL0re9U0813Zf5UZ5Tuple6__initZ
 04CC:1D90       _D85TypeInfo_S3std4bind58__T5TupleTC6PL8tRJ6VQL0re5IY1n6TC6PL8tRJ6VQL0re9U0813Zf5UZ5Tuple6__initZ
 04CC:1DF0       _D76TypeInfo_S3std4bind49__T5TupleTS3std4bind14__T6DynArgVi1Z6DynArgTDFZvZ5Tuple6__initZ
 04CC:1E60       _D42TypeInfo_S3std4bind14__T6DynArgVi0Z6DynArg6__initZ
 04CC:1EB0       _D45TypeInfo_B33S3std4bind14__T6DynArgVi0Z6DynArg6__initZ
 04CC:1EC0       _D42TypeInfo_S3std4bind14__T6DynArgVi1Z6DynArg6__initZ
 04CC:1F10       _D47TypeInfo_B35AaS3std4bind14__T6DynArgVi1Z6DynArg6__initZ
 04CC:1F20       _D13TypeInfo_DFZv6__initZ
 04CC:1F40       _D17TypeInfo_B6AaDFZv6__initZ
 04CC:1F50       _D33TypeInfo_B21C6PL8tRJ6VQL0re5IY1n66__initZ
 04CC:1F60       _D39TypeInfo_B27AaC6PL8tRJ6VQL0re9U0813Zf5U6__initZ
 04CC:1F70       _D15TypeInfo_B4DFZv6__initZ
 04CC:1F80       _D37TypeInfo_B25C6PL8tRJ6VQL0re9U0813Zf5U6__initZ
 04CC:1F90       _D45TypeInfo_B33S3std4bind14__T6DynArgVi1Z6DynArg6__initZ
 04CC:1FC0       _D6PL8tRJ5S_8Ue11CfBHTwLXdcAAk
 04CC:2028       _D6PL8tRJ5S_8Ue9__enum1956__initZ
 04CC:2030       _D6PL8tRJ5S_8Ue9__enum1966__initZ
 04CC:2034       _D6PL8tRJ5S_8Ue19M32Uvhn0KYWnMnWJvoh6__initZ
 04CC:2070       _D6PL8tRJ5S_8Ue19M32Uvhn0KYWnMnWJvoh7__ClassZ
 04CC:20C0       _D6PL8tRJ5S_8Ue19M32Uvhn0KYWnMnWJvoh6__vtblZ
 04CC:2148       _D6PL8tRJ5S_8Ue10QgSXDcegElAa
 04CC:2210       _D6PL8tRJ5S_8Ue12__ModuleInfoZ
 04CC:2260       _D36TypeInfo_E6PL8tRJ5S_8Ue11__anonymous6__initZ
 04CC:2280       _D44TypeInfo_C6PL8tRJ5S_8Ue19M32Uvhn0KYWnMnWJvoh6__initZ
 04CC:2290       _D12TypeInfo_AAi6__initZ
 04CC:22A0       _D14TypeInfo_B3Aai6__initZ
 04CC:22B0       _D12TypeInfo_B1i6__initZ
 04CC:22C0       _D14TypeInfo_B3iii6__initZ
 04CC:22D0       _D17TypeInfo_B6AaAaAa6__initZ
 04CC:2300       _D6PL8tRJ4UVkL4UVkL9__enum1976__initZ
 04CC:2310       _D6PL8tRJ4UVkL4UVkL6__initZ
 04CC:2340       _D6PL8tRJ4UVkL4UVkL7__ClassZ
 04CC:2390       _D6PL8tRJ4UVkL4UVkL6__vtblZ
 04CC:23EC       _D6PL8tRJ4UVkL11OpqlALYtxRh9__enum1986__initZ
 04CC:23F0       _D6PL8tRJ4UVkL11OpqlALYtxRh6__initZ
 04CC:2420       _D6PL8tRJ4UVkL11OpqlALYtxRh7__ClassZ
 04CC:2470       _D6PL8tRJ4UVkL11OpqlALYtxRh6__vtblZ
 04CC:24A0       _D6PL8tRJ4UVkL12__ModuleInfoZ
 04CC:24F0       _D40TypeInfo_E6PL8tRJ4UVkL4UVkL11__anonymous6__initZ
 04CC:2510       _D27TypeInfo_C6PL8tRJ4UVkL4UVkL6__initZ
 04CC:2520       _D48TypeInfo_E6PL8tRJ4UVkL11OpqlALYtxRh11__anonymous6__initZ
 04CC:2540       _D35TypeInfo_C6PL8tRJ4UVkL11OpqlALYtxRh6__initZ
 04CC:2550       _D35TypeInfo_S6PL8tRJ4UVkL11YguACTBDPnK6__initZ
 04CC:25BC       _D6PL8tRJ10OmlO6wmTZ28YDkaikWm6__initZ
 04CC:25C0       _D6PL8tRJ10OmlO6wmTZ213KZjfRbtq4bs6fi
 04CC:25D0       _D6PL8tRJ10OmlO6wmTZ215Lxku55mJ9GeteFE6__initZ
 04CC:2610       _D6PL8tRJ10OmlO6wmTZ215Lxku55mJ9GeteFE7__ClassZ
 04CC:2660       _D6PL8tRJ10OmlO6wmTZ215Lxku55mJ9GeteFE6__vtblZ
 04CC:2698       _D6PL8tRJ10OmlO6wmTZ213Hk3hHUF6rnXna6__initZ
 04CC:26BC       _D6PL8tRJ10OmlO6wmTZ210PBrTCy3VAP6__initZ
 04CC:26E0       _D6PL8tRJ10OmlO6wmTZ212OfOTpgfA9ism6__initZ
 04CC:26E8       _D6PL8tRJ10OmlO6wmTZ28ECnMyGDo6__initZ
 04CC:2710       _D6PL8tRJ10OmlO6wmTZ28ECnMyGDo7__ClassZ
 04CC:2760       _D6PL8tRJ10OmlO6wmTZ28ECnMyGDo6__vtblZ
 04CC:2778       _D6PL8tRJ10OmlO6wmTZ27VuJ7ItS6__initZ
 04CC:27A0       _D6PL8tRJ10OmlO6wmTZ27VuJ7ItS7__ClassZ
 04CC:27F0       _D6PL8tRJ10OmlO6wmTZ27VuJ7ItS6__vtblZ
 04CC:2820       _D6PL8tRJ10OmlO6wmTZ213Fydbda36iVXSg6__initZ
 04CC:2850       _D6PL8tRJ10OmlO6wmTZ213Fydbda36iVXSg7__ClassZ
 04CC:28A0       _D6PL8tRJ10OmlO6wmTZ213Fydbda36iVXSg6__vtblZ
 04CC:28B8       _D6PL8tRJ10OmlO6wmTZ212DpaJJ9PApdWC6__initZ
 04CC:28E0       _D6PL8tRJ10OmlO6wmTZ212DpaJJ9PApdWC7__ClassZ
 04CC:2930       _D6PL8tRJ10OmlO6wmTZ212DpaJJ9PApdWC6__vtblZ
 04CC:2960       _D6PL8tRJ10OmlO6wmTZ216T33ey1Z0pY6p5QKo6__initZ
 04CC:29A0       _D6PL8tRJ10OmlO6wmTZ216T33ey1Z0pY6p5QKo7__ClassZ
 04CC:29F0       _D6PL8tRJ10OmlO6wmTZ216T33ey1Z0pY6p5QKo6__vtblZ
 04CC:2A10       _D6PL8tRJ10OmlO6wmTZ27DkkGeNj6__initZ
 04CC:2A40       _D6PL8tRJ10OmlO6wmTZ27DkkGeNj7__ClassZ
 04CC:2A90       _D6PL8tRJ10OmlO6wmTZ27DkkGeNj6__vtblZ
 04CC:2AC0       _D6PL8tRJ10OmlO6wmTZ214IyKziRcqroDxVu6__initZ
 04CC:2B00       _D6PL8tRJ10OmlO6wmTZ214IyKziRcqroDxVu7__ClassZ
 04CC:2B50       _D6PL8tRJ10OmlO6wmTZ214IyKziRcqroDxVu6__vtblZ
 04CC:2B74       _D6PL8tRJ10OmlO6wmTZ215RWLFi9dIZjVWEdP9YMxfzYSM5k
 04CC:2B80       _D6PL8tRJ10OmlO6wmTZ215RWLFi9dIZjVWEdP6__initZ
 04CC:2BC0       _D6PL8tRJ10OmlO6wmTZ215RWLFi9dIZjVWEdP7__ClassZ
 04CC:2C10       _D6PL8tRJ10OmlO6wmTZ215RWLFi9dIZjVWEdP6__vtblZ
 04CC:2C50       _D6PL8tRJ10OmlO6wmTZ221RngQluqPAqhIN30tU_Y5e6__initZ
 04CC:2C90       _D6PL8tRJ10OmlO6wmTZ221RngQluqPAqhIN30tU_Y5e7__ClassZ
 04CC:2CE0       _D6PL8tRJ10OmlO6wmTZ221RngQluqPAqhIN30tU_Y5e6__vtblZ
 04CC:2D1C       _D6PL8tRJ10OmlO6wmTZ214JuesLSTEkUd0hY6__initZ
 04CC:2D40       _D6PL8tRJ10OmlO6wmTZ29ZtcU2D9mO6__initZ
 04CC:2D70       _D6PL8tRJ10OmlO6wmTZ29ZtcU2D9mO7__ClassZ
 04CC:2DC0       _D6PL8tRJ10OmlO6wmTZ29ZtcU2D9mO6__vtblZ
 04CC:2E24       _D6PL8tRJ10OmlO6wmTZ217CeKs_0R6L4Q1AqC6E6__initZ
 04CC:2E48       _D6PL8tRJ10OmlO6wmTZ212HyC1nONSw8aP6__initZ
 04CC:2E4C       _D6PL8tRJ10OmlO6wmTZ26Yaxccj5S6T4_i
 04CC:2E50       _D6PL8tRJ10OmlO6wmTZ26Yaxccj6__initZ
 04CC:2E80       _D6PL8tRJ10OmlO6wmTZ26Yaxccj7__ClassZ
 04CC:2ED0       _D6PL8tRJ10OmlO6wmTZ26Yaxccj6__vtblZ
 04CC:2F70       _D6PL8tRJ10OmlO6wmTZ29HnH9zWNqz6__initZ
 04CC:2FA0       _D6PL8tRJ10OmlO6wmTZ29HnH9zWNqz7__ClassZ
 04CC:2FF0       _D6PL8tRJ10OmlO6wmTZ29HnH9zWNqz6__vtblZ
 04CC:3090       _D6PL8tRJ10OmlO6wmTZ29GaH8HdxRF6__initZ
 04CC:30C0       _D6PL8tRJ10OmlO6wmTZ29GaH8HdxRF7__ClassZ
 04CC:3110       _D6PL8tRJ10OmlO6wmTZ29GaH8HdxRF6__vtblZ
 04CC:31C0       _D6PL8tRJ10OmlO6wmTZ212__ModuleInfoZ
 04CC:3230       _D38TypeInfo_T6PL8tRJ10OmlO6wmTZ28YDkaikWm6__initZ
 04CC:3250       _D46TypeInfo_C6PL8tRJ10OmlO6wmTZ215Lxku55mJ9GeteFE6__initZ
 04CC:3260       _D44TypeInfo_E6PL8tRJ10OmlO6wmTZ213Hk3hHUF6rnXna6__initZ
 04CC:3280       _D41TypeInfo_E6PL8tRJ10OmlO6wmTZ210PBrTCy3VAP6__initZ
 04CC:32A0       _D43TypeInfo_E6PL8tRJ10OmlO6wmTZ212OfOTpgfA9ism6__initZ
 04CC:32C0       _D38TypeInfo_C6PL8tRJ10OmlO6wmTZ28ECnMyGDo6__initZ
 04CC:32D0       _D37TypeInfo_C6PL8tRJ10OmlO6wmTZ27VuJ7ItS6__initZ
 04CC:32E0       _D44TypeInfo_C6PL8tRJ10OmlO6wmTZ213Fydbda36iVXSg6__initZ
 04CC:32F0       _D43TypeInfo_C6PL8tRJ10OmlO6wmTZ212DpaJJ9PApdWC6__initZ
 04CC:3300       _D47TypeInfo_C6PL8tRJ10OmlO6wmTZ216T33ey1Z0pY6p5QKo6__initZ
 04CC:3310       _D37TypeInfo_C6PL8tRJ10OmlO6wmTZ27DkkGeNj6__initZ
 04CC:3320       _D45TypeInfo_C6PL8tRJ10OmlO6wmTZ214IyKziRcqroDxVu6__initZ
 04CC:3330       _D46TypeInfo_C6PL8tRJ10OmlO6wmTZ215RWLFi9dIZjVWEdP6__initZ
 04CC:3340       _D52TypeInfo_C6PL8tRJ10OmlO6wmTZ221RngQluqPAqhIN30tU_Y5e6__initZ
 04CC:3350       _D45TypeInfo_E6PL8tRJ10OmlO6wmTZ214JuesLSTEkUd0hY6__initZ
 04CC:3370       _D42TypeInfo_E6PL8tRJ10OmlO6wmTZ211F2wnED8pGtB6__initZ
 04CC:3390       _D37TypeInfo_S6PL8tRJ10OmlO6wmTZ27ZJtA30S6__initZ
 04CC:33E0       _D39TypeInfo_C6PL8tRJ10OmlO6wmTZ29ZtcU2D9mO6__initZ
 04CC:33F0       _D48TypeInfo_E6PL8tRJ10OmlO6wmTZ217CeKs_0R6L4Q1AqC6E6__initZ
 04CC:3410       _D36TypeInfo_S6PL8tRJ10OmlO6wmTZ26FVqUdW6__initZ
 04CC:3460       _D43TypeInfo_E6PL8tRJ10OmlO6wmTZ212HyC1nONSw8aP6__initZ
 04CC:3480       _D36TypeInfo_C6PL8tRJ10OmlO6wmTZ26Yaxccj6__initZ
 04CC:3490       _D39TypeInfo_C6PL8tRJ10OmlO6wmTZ29HnH9zWNqz6__initZ
 04CC:34A0       _D39TypeInfo_C6PL8tRJ10OmlO6wmTZ29GaH8HdxRF6__initZ
 04CC:34B0       _D6PL8tRJ21TVpg3HUXi7OJv35xWEicq14JJLBz8JiRi8d_Ck
 04CC:34B4       _D6PL8tRJ21TVpg3HUXi7OJv35xWEicq12DxvKbS83Dm6xi
 04CC:34B8       _D6PL8tRJ21TVpg3HUXi7OJv35xWEicq18CWYCNl6_z2TmlaCkfii
 04CC:34BC       _D6PL8tRJ21TVpg3HUXi7OJv35xWEicq17ZlUzUhtWMCj3bWUvki
 04CC:34C0       _D6PL8tRJ21TVpg3HUXi7OJv35xWEicq12YUqD4BQFHgnMi
 04CC:34C4       _D6PL8tRJ21TVpg3HUXi7OJv35xWEicq6EkQKqXi
 04CC:34C8       _D6PL8tRJ21TVpg3HUXi7OJv35xWEicq7OidLgeti
 04CC:34F8       _D6PL8tRJ21TVpg3HUXi7OJv35xWEicq9__enum1996__initZ
 04CC:34FC       _D6PL8tRJ21TVpg3HUXi7OJv35xWEicq9__enum2006__initZ
 04CC:3500       _D6PL8tRJ21TVpg3HUXi7OJv35xWEicq9__enum2016__initZ
 04CC:3504       _D6PL8tRJ21TVpg3HUXi7OJv35xWEicq9__enum2026__initZ
 04CC:3508       _D6PL8tRJ21TVpg3HUXi7OJv35xWEicq10X9Lz4f5l4yk
 04CC:350C       _D6PL8tRJ21TVpg3HUXi7OJv35xWEicq9__enum2036__initZ
 04CC:3510       _D6PL8tRJ21TVpg3HUXi7OJv35xWEicq9__enum2046__initZ
 04CC:3514       _D6PL8tRJ21TVpg3HUXi7OJv35xWEicq9__enum2056__initZ
 04CC:3518       _D6PL8tRJ21TVpg3HUXi7OJv35xWEicq9__enum2066__initZ
 04CC:351C       _D6PL8tRJ21TVpg3HUXi7OJv35xWEicq15T1Y_HfTAnbBqrrnk
 04CC:3520       _D6PL8tRJ21TVpg3HUXi7OJv35xWEicq16NPUgfR31lT7pOrzak
 04CC:3550       _D6PL8tRJ21TVpg3HUXi7OJv35xWEicq12__ModuleInfoZ
 04CC:3590       _D48TypeInfo_S6PL8tRJ21TVpg3HUXi7OJv35xWEicq7Bb5o7IV6__initZ
 04CC:35F0       _D53TypeInfo_E6PL8tRJ21TVpg3HUXi7OJv35xWEicq11__anonymous6__initZ
 04CC:3610       _D47TypeInfo_S6PL8tRJ21TVpg3HUXi7OJv35xWEicq6IuZEzp6__initZ
 04CC:3670       _D47TypeInfo_S6PL8tRJ21TVpg3HUXi7OJv35xWEicq6FVqUdW6__initZ
 04CC:36D0       _D49TypeInfo_S6PL8tRJ21TVpg3HUXi7OJv35xWEicq8PAwLzCh46__initZ
 04CC:3730       _D48TypeInfo_S6PL8tRJ21TVpg3HUXi7OJv35xWEicq7RvZMxWT6__initZ
 04CC:3790       _D48TypeInfo_S6PL8tRJ21TVpg3HUXi7OJv35xWEicq7ZJtA30S6__initZ
 04CC:37F0       _D48TypeInfo_S6PL8tRJ21TVpg3HUXi7OJv35xWEicq7L3mgINA6__initZ
 04CC:3850       _D56TypeInfo_S6PL8tRJ21TVpg3HUXi7OJv35xWEicq7L3mgINA7F6wINQn6__initZ
 04CC:38B0       _D66TypeInfo_S6PL8tRJ21TVpg3HUXi7OJv35xWEicq7L3mgINA7F6wINQn9VZXQFaXc66__initZ
 04CC:3920       _D66TypeInfo_S6PL8tRJ21TVpg3HUXi7OJv35xWEicq7L3mgINA7F6wINQn9X34UajOge6__initZ
 04CC:3990       _D49TypeInfo_S6PL8tRJ21TVpg3HUXi7OJv35xWEicq8EOrIIyuh6__initZ
 04CC:39F0       _D58TypeInfo_S6PL8tRJ21TVpg3HUXi7OJv35xWEicq8EOrIIyuh8VRvGF4lP6__initZ
 04CC:3A50       _D49TypeInfo_S6PL8tRJ21TVpg3HUXi7OJv35xWEicq8FPp_tQb36__initZ
 04CC:3AB0       _D53TypeInfo_S6PL8tRJ21TVpg3HUXi7OJv35xWEicq11YmLTddMpbxz6__initZ
 04CC:3B10       _D54TypeInfo_S6PL8tRJ21TVpg3HUXi7OJv35xWEicq12XpLVZLwnR7X96__initZ
 04CC:3B70       _D49TypeInfo_S6PL8tRJ21TVpg3HUXi7OJv35xWEicq8Phd4d0d86__initZ
 04CC:3BD0       _D48TypeInfo_S6PL8tRJ21TVpg3HUXi7OJv35xWEicq7I0WKVvV6__initZ
 04CC:3C30       _D6PL8tRJ4SCve6V8eQAW11WaS0xDC4g0p6__initZ
 04CC:3C60       _D6PL8tRJ4SCve6V8eQAW11WaS0xDC4g0p7__ClassZ
 04CC:3CB0       _D6PL8tRJ4SCve6V8eQAW11WaS0xDC4g0p6__vtblZ
 04CC:3CF0       _D6PL8tRJ4SCve6V8eQAW11LSCyILakhEk6__initZ
 04CC:3D40       _D6PL8tRJ4SCve6V8eQAW11LSCyILakhEk7__ClassZ
 04CC:3D90       _D6PL8tRJ4SCve6V8eQAW11LSCyILakhEk6__vtblZ
 04CC:3DE6       _D6PL8tRJ4SCve6V8eQAW14HwC6ax58bnXVra6__initZ
 04CC:3DF8       _D6PL8tRJ4SCve6V8eQAW12Nd4PsjPBdmpz6__initZ
 04CC:3E30       _D6PL8tRJ4SCve6V8eQAW12Nd4PsjPBdmpz7__ClassZ
 04CC:3E80       _D6PL8tRJ4SCve6V8eQAW12Nd4PsjPBdmpz6__vtblZ
 04CC:3F00       _D6PL8tRJ4SCve6V8eQAW12__ModuleInfoZ
 04CC:3F50       _D42TypeInfo_C6PL8tRJ4SCve6V8eQAW11WaS0xDC4g0p6__initZ
 04CC:3F60       _D42TypeInfo_C6PL8tRJ4SCve6V8eQAW11LSCyILakhEk6__initZ
 04CC:3F70       _D45TypeInfo_E6PL8tRJ4SCve6V8eQAW14HwC6ax58bnXVra6__initZ
 04CC:3F90       _D43TypeInfo_C6PL8tRJ4SCve6V8eQAW12Nd4PsjPBdmpz6__initZ
 04CC:3FA0       _D56TypeInfo_S6PL8tRJ4SCve6V8eQAW13Ugyo1hRFwLgyCFAaZAAa4Uytd6__initZ
 04CC:4000       _D58TypeInfo_G1S6PL8tRJ4SCve6V8eQAW13Ugyo1hRFwLgyCFAaZAAa4Uytd6__initZ
 04CC:4028       _D6PL8tRJ4KN8D9__enum2076__initZ
 04CC:4040       _D6PL8tRJ4KN8D12__ModuleInfoZ
 04CC:4080       _D35TypeInfo_E6PL8tRJ4KN8D11__anonymous6__initZ
 04CC:40B8       _D6PL8tRJ4U7NC9__enum2086__initZ
 04CC:40C0       _D6PL8tRJ4U7NC13L1Icn66DY7CCJ6__initZ
 04CC:40F0       _D6PL8tRJ4U7NC13L1Icn66DY7CCJ7__ClassZ
 04CC:4140       _D6PL8tRJ4U7NC13L1Icn66DY7CCJ6__vtblZ
 04CC:4158       _D6PL8tRJ4U7NC8LrOc4J0V6__initZ
 04CC:4180       _D6PL8tRJ4U7NC8LrOc4J0V7__ClassZ
 04CC:41D0       _D6PL8tRJ4U7NC8LrOc4J0V6__vtblZ
 04CC:41F0       _D6PL8tRJ4U7NC10CShi9fdEHC6__initZ
 04CC:4210       _D6PL8tRJ4U7NC10CShi9fdEHC7__ClassZ
 04CC:4260       _D6PL8tRJ4U7NC10CShi9fdEHC6__vtblZ
 04CC:4288       _D6PL8tRJ4U7NC16IrxQ0oM8iZ6855c46__initZ
 04CC:42B0       _D6PL8tRJ4U7NC16IrxQ0oM8iZ6855c47__ClassZ
 04CC:4300       _D6PL8tRJ4U7NC16IrxQ0oM8iZ6855c46__vtblZ
 04CC:4330       _D6PL8tRJ4U7NC12__ModuleInfoZ
 04CC:4380       _D35TypeInfo_E6PL8tRJ4U7NC11__anonymous6__initZ
 04CC:43A0       _D37TypeInfo_C6PL8tRJ4U7NC13L1Icn66DY7CCJ6__initZ
 04CC:43B0       _D31TypeInfo_C6PL8tRJ4U7NC8LrOc4J0V6__initZ
 04CC:43C0       _D34TypeInfo_C6PL8tRJ4U7NC10CShi9fdEHC6__initZ
 04CC:43D0       _D40TypeInfo_C6PL8tRJ4U7NC16IrxQ0oM8iZ6855c46__initZ
 04CC:4410       _D6PL8tRJ4SCve10S4lHH6gZNI14DEbkdp_8fRzMXX12SiSxoKxhRhn7G1401a
 04CC:4990       _D6PL8tRJ4SCve10S4lHH6gZNI14DEbkdp_8fRzMXX15Um78bjCLho95gT9G90a
 04CC:49F0       _D6PL8tRJ4SCve10S4lHH6gZNI14DEbkdp_8fRzMXX13NsgbMwoffwOjQG195a
 04CC:4AB4       _D6PL8tRJ4SCve10S4lHH6gZNI14DEbkdp_8fRzMXX6__initZ
 04CC:4AF0       _D6PL8tRJ4SCve10S4lHH6gZNI14DEbkdp_8fRzMXX7__ClassZ
 04CC:4B40       _D6PL8tRJ4SCve10S4lHH6gZNI14DEbkdp_8fRzMXX6__vtblZ
 04CC:4BC0       _D6PL8tRJ4SCve10S4lHH6gZNI12__ModuleInfoZ
 04CC:4C10       _D50TypeInfo_C6PL8tRJ4SCve10S4lHH6gZNI14DEbkdp_8fRzMXX6__initZ
 04CC:4CF0       _D6PL8tRJ4SCve4DobM12__ModuleInfoZ
 04CC:4D30       _D39TypeInfo_S6PL8tRJ4SCve4DobM10MReeZuNVi86__initZ
 04CC:4D80       _D12TypeInfo_G9a6__initZ
 04CC:4D90       _D14TypeInfo_B3Aaa6__initZ
 04CC:4DA0       _D14TypeInfo_B3Aaw6__initZ
 04CC:4DF0       _D6PL8tRJ4SCve6S9FDhs10Jwa30kxluS6__initZ
 04CC:4E20       _D6PL8tRJ4SCve6S9FDhs10Jwa30kxluS7__ClassZ
 04CC:4E70       _D6PL8tRJ4SCve6S9FDhs10Jwa30kxluS6__vtblZ
 04CC:4EC0       _D6PL8tRJ4SCve6S9FDhs12__ModuleInfoZ
 04CC:4F00       _D41TypeInfo_C6PL8tRJ4SCve6S9FDhs10Jwa30kxluS6__initZ
 04CC:4F10       _D14TypeInfo_B3Aat6__initZ
 04CC:4F40       _D6PL8tRJ7W6oQinE6GPnbOC6__initZ
 04CC:4F70       _D6PL8tRJ7W6oQinE6GPnbOC7__ClassZ
 04CC:4FC0       _D6PL8tRJ7W6oQinE6GPnbOC6__vtblZ
 04CC:5030       _D6PL8tRJ7W6oQinE13HuhKpbLkFJjhg6__initZ
 04CC:5070       _D6PL8tRJ7W6oQinE13HuhKpbLkFJjhg7__ClassZ
 04CC:50C0       _D6PL8tRJ7W6oQinE13HuhKpbLkFJjhg6__vtblZ
 04CC:50F0       _D6PL8tRJ7W6oQinE10D4sXFrbfoO6__initZ
 04CC:5130       _D6PL8tRJ7W6oQinE10D4sXFrbfoO7__ClassZ
 04CC:5180       _D6PL8tRJ7W6oQinE10D4sXFrbfoO6__vtblZ
 04CC:51B0       _D6PL8tRJ7W6oQinE13ZzoJiJ9vuPlip6__initZ
 04CC:51E0       _D6PL8tRJ7W6oQinE13ZzoJiJ9vuPlip7__ClassZ
 04CC:5230       _D6PL8tRJ7W6oQinE13ZzoJiJ9vuPlip6__vtblZ
 04CC:5260       _D6PL8tRJ7W6oQinE11IWnw3IBZKxG6__initZ
 04CC:52A0       _D6PL8tRJ7W6oQinE11IWnw3IBZKxG7__ClassZ
 04CC:52F0       _D6PL8tRJ7W6oQinE11IWnw3IBZKxG6__vtblZ
 04CC:5320       _D6PL8tRJ7W6oQinE20Sjf10OGE3hXfL57LEzgc6__initZ
 04CC:5360       _D6PL8tRJ7W6oQinE20Sjf10OGE3hXfL57LEzgc7__ClassZ
 04CC:53B0       _D6PL8tRJ7W6oQinE20Sjf10OGE3hXfL57LEzgc6__vtblZ
 04CC:5430       _D6PL8tRJ7W6oQinE12__ModuleInfoZ
 04CC:5490       _D32TypeInfo_C6PL8tRJ7W6oQinE6GPnbOC6__initZ
 04CC:54A0       _D40TypeInfo_C6PL8tRJ7W6oQinE13HuhKpbLkFJjhg6__initZ
 04CC:54B0       _D37TypeInfo_C6PL8tRJ7W6oQinE10D4sXFrbfoO6__initZ
 04CC:54C0       _D40TypeInfo_C6PL8tRJ7W6oQinE13ZzoJiJ9vuPlip6__initZ
 04CC:54D0       _D38TypeInfo_C6PL8tRJ7W6oQinE11IWnw3IBZKxG6__initZ
 04CC:54E0       _D47TypeInfo_C6PL8tRJ7W6oQinE20Sjf10OGE3hXfL57LEzgc6__initZ
 04CC:54F0       _D18TypeInfo_B7AaAalAa6__initZ
 04CC:5500       _D13TypeInfo_B2ll6__initZ
 04CC:5510       _D22TypeInfo_B10AaAailAaAa6__initZ
 04CC:5520       _D33TypeInfo_AC6PL8tRJ7W6oQinE6GPnbOC6__initZ
 04CC:558C       _D7WrsbrqT6NCMp4E9__enum2096__initZ
 04CC:5590       _D7WrsbrqT6NCMp4E6__initZ
 04CC:55B0       _D7WrsbrqT6NCMp4E7__ClassZ
 04CC:5600       _D7WrsbrqT6NCMp4E6__vtblZ
 04CC:5640       _D7WrsbrqT13CVLxf3p_Q809zi
 04CC:5680       _D7WrsbrqT12__ModuleInfoZ
 04CC:56D0       _D34TypeInfo_S7WrsbrqT14BP8X5RPsfAmCkR6__initZ
 04CC:5720       _D36TypeInfo_S7WrsbrqT16AP9WRE55rwuOLv5d6__initZ
 04CC:5770       _D31TypeInfo_S7WrsbrqT11NxtpRDGDnRI6__initZ
 04CC:57C0       _D25TypeInfo_S7WrsbrqT6ST3h976__initZ
 04CC:5800       _D23TypeInfo_S7WrsbrqT4CnAz6__initZ
 04CC:5840       _D29TypeInfo_E7WrsbrqT4CnAz5Jj_hY6__initZ
 04CC:5860       _D12TypeInfo_AAv6__initZ
 04CC:5870       _D24TypeInfo_PS7WrsbrqT4CnAz6__initZ
 04CC:5880       _D25TypeInfo_APS7WrsbrqT4CnAz6__initZ
 04CC:5890       _D34TypeInfo_S7WrsbrqT14B3oepn1pP2G8Vu6__initZ
 04CC:58E0       _D38TypeInfo_E7WrsbrqT6NCMp4E11__anonymous6__initZ
 04CC:5900       _D13TypeInfo_G16h6__initZ
 04CC:5910       _D14TypeInfo_AG16h6__initZ
 04CC:5920       _D25TypeInfo_C7WrsbrqT6NCMp4E6__initZ
 04CC:5930       _D26TypeInfo_AC7WrsbrqT6NCMp4E6__initZ
 04CC:5940       _D33TypeInfo_S7WrsbrqT13Q3LCZ_2zQGiCa6__initZ
 04CC:5990       _D34TypeInfo_S7WrsbrqT14PGBeG2OG5VWVOH6__initZ
 04CC:59E0       _D35TypeInfo_AS7WrsbrqT14B3oepn1pP2G8Vu6__initZ
 04CC:59F0       _D179TypeInfo_S7WrsbrqT27__T18AyCOXnSHy1A4YqTKscVb0Z18AyCOXnSHy1A4YqTKscFC7WrsbrqT6NCMp4EC7Wrsbrq5E56A07685385BCD18924935865FB069
 04CC:5A60       _D181TypeInfo_S7WrsbrqT27__T18AyCOXnSHy1A4YqTKscVb0Z18AyCOXnSHy1A4YqTKscFC7WrsbrqT6NCMp4EC7Wrsbrq61CDA6F45A4DE78B3BFC50352F7DB933
 04CC:5AD0       _D578TypeInfo_S6PL8tRJ9PWUmAyceS538__T9VIs5quPFWTS7WrsbrqT27__T18AyCOXnSHy1A4YqTKscVb0Z18AyCOXnSH490DE8F2BBBE28AC3F26567A84285B56
 04CC:5B80       _D583TypeInfo_S6PL8tRJ9PWUmAyceS538__T9VIs5quPFWTS7WrsbrqT27__T18AyCOXnSHy1A4YqTKscVb0Z18AyCOXnSH57EC85FF6A926833C2C6D4F26D15DEDB
 04CC:5C30       _D682TypeInfo_S6PL8tRJ9PWUmAyceS637__T13K2lfUZJzEtmy4TS6PL8tRJ9PWUmAyceS538__T9VIs5quPFWTS7WrsbrqAB78391E66F7C1F6837DD42C3BF02393
 04CC:5CB0       _D688TypeInfo_S6PL8tRJ9PWUmAyceS637__T13K2lfUZJzEtmy4TS6PL8tRJ9PWUmAyceS538__T9VIs5quPFWTS7Wrsbrq3AD22A103C12A7C66078CAF795239BBB
 04CC:5D80       _D6PL8tRJ9PWUmAyceS12__ModuleInfoZ
 04CC:5DC0       _D42TypeInfo_S6PL8tRJ9PWUmAyceS13QaZn5o1xJFQiL6__initZ
 04CC:5E20       _D5Qdudr12__ModuleInfoZ
 04CC:5E60       _D31TypeInfo_S5Qdudr13AeGY1BFD7I0sT6__initZ
 0ABB:0000       _D8mainfile14JIlhMB3pekQ94jC8mainfile14JhcGTAWNYpsmH1
 0ABB:0008       _D8mainfile12SWhnfUrJKQ7n6__initZ
 0ABB:0010       _D8mainfile7Ai5U7pgb
 0ABB:0020       _D8mainfile3Fzo9YhNRZAzZrMFC6PL8tRJ4SCve6V8eQAW11LSCyILakhEkC6PL8tRJ8YYSbXxao12SOq8rVwHOGQRZC6PL7DFB168A6F7041A903FF37A5A826B919
 0ABB:0030       _D8mainfile3Fzo9YhNRZAzZrMFC6PL8tRJ4SCve6V8eQAW11LSCyILakhEkC6PL8tRJ8YYSbXxao12SOq8rVwHOGQRZC6PL8542991334CFF5B0E75BB32AEF801B12
 0ABB:0038       _D8mainfile3Fzo9YhNRZAzZrMFC6PL8tRJ4SCve6V8eQAW11LSCyILakhEkÄà°8YYSbXxao12SOq8rVwHOGQRZÄï¡2Nd4PsjPBdmpz9PR42k4_Jh6__initZ
 0ABB:0040       _D8mainfile3Fzo9YhNRZAzZrMFC6PL8tRJ4SCve6V8eQAW11LSCyILakhEkÄà°8YYSbXxao12SOq8rVwHOGQRZÄï¡2Nd4PsjPBdmpz6KlJyEo6__initZ
 0ABB:0050       _D8mainfile3Fzo9YhNRZAzZrMFC6PL8tRJ4SCve6V8eQAW11LSCyILakhEkÄà°8YYSbXxao12SOq8rVwHOGQRZÄï¡2Nd4PsjPBdmpz5St_uz6__initZ
 0ABB:006C       _D8mainfile3Fzo9YhNRZAzZrMFC6PL8tRJ4SCve6V8eQAW11LSCyILakhEkÄà°8YYSbXxao12SOq8rVwHOGQRZÄï¡2Nd4PsjPBdmpz10AeVPot9oCd6__initZ
 0ABB:0070       _D6PL8tRJ8YYSbXxao13MvpbcBn39p7yc6__initZ
 0ABB:0071       _D6PL8tRJ8YYSbXxao9BJfKKwjMb6__initZ
 0ABB:0074       _D6PL8tRJ8YYSbXxao12I54V2vA5DDLGi
 0ABB:0078       _D6PL8tRJ8YYSbXxao13Y7XqSCYcXTMegC6PL8tRJ8YYSbXxao13JFI8ULUOXLUwP
 0ABB:007C       _D6PL8tRJ8YYSbXxao9Sz_6UL2CwC6PL8tRJ6VQL0re5IY1n6
 0ABB:0080       _D6PL8tRJ6VQL0re9NqEy3jzyaC6PL8tRJ6VQL0re5IY1n6
 0ABB:0084       _D6PL8tRJ6VQL0re7QOukedyC6PL8tRJ6VQL0re15ZW8ZKNwrOMTMoUg
 0ABB:0088       _D6PL8tRJ6VQL0re7A3br8kL6__initZ
 0ABB:00A0       _D6PL8tRJ5S_8Ue5XpogNk
 0ABB:00A4       _D6PL8tRJ5S_8Ue11WyR5ZYgEvNDk
 0ABB:00A8       _D6PL8tRJ5S_8Ue16OlRR2JfDBGI2s5Y4AAa
 0ABB:00B0       _D6PL8tRJ4UVkL10B373yoRelyk
 0ABB:00B4       _D6PL8tRJ4UVkL14KLu4vHdFY41Cbek
 0ABB:00B8       _D6PL8tRJ4UVkL9HHjqOzgv9k
 0ABB:00BC       _D6PL8tRJ4UVkL10Yq7HtWD7qKk
 0ABB:00C0       _D6PL8tRJ4UVkL11OpqlALYtxRh18AJYDfjeKtnlLSLmTeTk
 0ABB:00C4       _D6PL8tRJ4UVkL11OpqlALYtxRh8QL9CMCkQk
 0ABB:00C8       _D6PL8tRJ4UVkL11YguACTBDPnK6__initZ
 0ABB:00D0       _D6PL8tRJ10OmlO6wmTZ215RWLFi9dIZjVWEdP8AQSR7xRdk
 0ABB:00D4       _D6PL8tRJ10OmlO6wmTZ215RWLFi9dIZjVWEdP8NLeOaMUtt
 0ABB:00D6       _D6PL8tRJ10OmlO6wmTZ27ZJtA30S6__initZ
 0ABB:00D7       _D6PL8tRJ10OmlO6wmTZ26FVqUdW6__initZ
 0ABB:00E0       _D6PL8tRJ21TVpg3HUXi7OJv35xWEicq7Bb5o7IV6__initZ
 0ABB:00E4       _D6PL8tRJ21TVpg3HUXi7OJv35xWEicq6Vrbb91k
 0ABB:00E8       _D6PL8tRJ21TVpg3HUXi7OJv35xWEicq15VYfpCU2d8zp7h8Ci
 0ABB:00EC       _D6PL8tRJ21TVpg3HUXi7OJv35xWEicq6IuZEzp6__initZ
 0ABB:00F0       _D6PL8tRJ21TVpg3HUXi7OJv35xWEicq6FVqUdW6__initZ
 0ABB:00F1       _D6PL8tRJ21TVpg3HUXi7OJv35xWEicq8PAwLzCh46__initZ
 0ABB:00F2       _D6PL8tRJ21TVpg3HUXi7OJv35xWEicq7RvZMxWT6__initZ
 0ABB:00F3       _D6PL8tRJ21TVpg3HUXi7OJv35xWEicq7ZJtA30S6__initZ
 0ABB:00F4       _D6PL8tRJ21TVpg3HUXi7OJv35xWEicq7L3mgINA6__initZ
 0ABB:00F8       _D6PL8tRJ21TVpg3HUXi7OJv35xWEicq7L3mgINA7F6wINQn6__initZ
 0ABB:00F9       _D6PL8tRJ21TVpg3HUXi7OJv35xWEicq7L3mgINA7F6wINQn9VZXQFaXc66__initZ
 0ABB:00FA       _D6PL8tRJ21TVpg3HUXi7OJv35xWEicq7L3mgINA7F6wINQn9X34UajOge6__initZ
 0ABB:00FB       _D6PL8tRJ21TVpg3HUXi7OJv35xWEicq8EOrIIyuh6__initZ
 0ABB:00FC       _D6PL8tRJ21TVpg3HUXi7OJv35xWEicq8EOrIIyuh8VRvGF4lP6__initZ
 0ABB:00FD       _D6PL8tRJ21TVpg3HUXi7OJv35xWEicq11PQg4Aeoacg1S6PL8tRJ21TVpg3HUXi7OJv35xWEicq8EOrIIyuh
 0ABB:00FE       _D6PL8tRJ21TVpg3HUXi7OJv35xWEicq16FVgo8Xm8Ocqwmbd4S6PL8tRJ21TVpg3HUXi7OJv35xWEicq8EOrIIyuh
 0ABB:0100       _D6PL8tRJ21TVpg3HUXi7OJv35xWEicq8FPp_tQb36__initZ
 0ABB:0108       _D6PL8tRJ21TVpg3HUXi7OJv35xWEicq11YmLTddMpbxz6__initZ
 0ABB:0110       _D6PL8tRJ21TVpg3HUXi7OJv35xWEicq12XpLVZLwnR7X96__initZ
 0ABB:0111       _D6PL8tRJ21TVpg3HUXi7OJv35xWEicq8Phd4d0d86__initZ
 0ABB:0112       _D6PL8tRJ21TVpg3HUXi7OJv35xWEicq7I0WKVvV6__initZ
 0ABB:0120       _D6PL8tRJ4SCve6V8eQAW13Ugyo1hRFwLgyCFAaZAAa4Uytd6__initZ
 0ABB:0130       _D6PL8tRJ4SCve4DobM10MReeZuNVi86__initZ
 0ABB:0140       _D6PL8tRJ7W6oQinE16Ota9vtPNM3hMiywbi
 0ABB:0150       _D7WrsbrqT14BP8X5RPsfAmCkR6__initZ
 0ABB:0158       _D7WrsbrqT16AP9WRE55rwuOLv5d6__initZ
 0ABB:0160       _D7WrsbrqT11NxtpRDGDnRI6__initZ
 0ABB:0168       _D7WrsbrqT6ST3h976__initZ
 0ABB:0170       _D7WrsbrqT4CnAz6__initZ
 0ABB:0178       _D7WrsbrqT8CfQ5_zgCC3std6stream4File
 0ABB:0188       _D7WrsbrqT11TC3DqEGjsBBHAaC3std6stream4File
 0ABB:0190       _D7WrsbrqT14B3oepn1pP2G8Vu6__initZ
 0ABB:0198       _D7WrsbrqT10GlCgJGaHDjC3std6stream4File
 0ABB:01A4       _D7WrsbrqT13Q3LCZ_2zQGiCa6__initZ
 0ABB:01A5       _D7WrsbrqT14PGBeG2OG5VWVOH6__initZ
 0ABB:01B0       _D6PL8tRJ9PWUmAyceS13QaZn5o1xJFQiL6__initZ
 0ABB:01C0       _D5Qdudr13AeGY1BFD7I0sT6__initZ
 0AD8:0000       _D3std6traits29__T18isStaticArray_implTG51iZ4instG51i
 0AD8:00CC       _D3std6traits29__T18isStaticArray_implTG2AiZ4instG2Ai
 0AD8:00DC       _D3std6traits32__T18isStaticArray_implTG11HiAaZ4instG11HiAa
 0AD8:0108       _D3std6traits27__T18isStaticArray_implTAiZ4instAi
 0AD8:0110       _D3std6traits28__T18isStaticArray_implTHaiZ4instHai
 0AD8:0114       _D3std6traits29__T18isStaticArray_implTAG1iZ4instAG1i
 0AD8:011C       _D3std6traits29__T18isStaticArray_implTDFZvZ4instDFZv
 0AD8:0124       _D3std6traits46__T18isStaticArray_implTC6PL8tRJ6VQL0re5IY1n6Z4instC6PL8tRJ6VQL0re5IY1n6
 0AD8:0128       _D3std6traits50__T18isStaticArray_implTC6PL8tRJ6VQL0re9U0813Zf5UZ4instC6PL8tRJ6VQL0re9U0813Zf5U
